
homebrew-CWNANO.elf:     file format elf32-littlearm

Sections:
Idx Name          Size      VMA       LMA       File off  Algn
  0 .isr_vector   00000188  08000000  08000000  00010000  2**0
                  CONTENTS, ALLOC, LOAD, READONLY, DATA
  1 .text         000010c8  08000188  08000188  00010188  2**2
                  CONTENTS, ALLOC, LOAD, READONLY, CODE
  2 .rodata       00000014  08001250  08001250  00011250  2**0
                  CONTENTS, ALLOC, LOAD, READONLY, DATA
  3 .ARM.extab    00000000  08001264  08001264  00020008  2**0
                  CONTENTS
  4 .ARM          00000000  08001264  08001264  00020008  2**0
                  CONTENTS
  5 .preinit_array 00000000  08001264  08001264  00020008  2**0
                  CONTENTS, ALLOC, LOAD, DATA
  6 .init_array   00000004  08001264  08001264  00011264  2**2
                  CONTENTS, ALLOC, LOAD, DATA
  7 .fini_array   00000004  08001268  08001268  00011268  2**2
                  CONTENTS, ALLOC, LOAD, DATA
  8 .data         00000008  20000000  0800126c  00020000  2**2
                  CONTENTS, ALLOC, LOAD, DATA
  9 .bss          00000194  20000008  08001274  00020008  2**2
                  ALLOC
 10 ._user_heap_stack 00000404  2000019c  08001274  0002019c  2**0
                  ALLOC
 11 .ARM.attributes 00000028  00000000  00000000  00020008  2**0
                  CONTENTS, READONLY
 12 .comment      000000a7  00000000  00000000  00020030  2**0
                  CONTENTS, READONLY
 13 .debug_info   00004cd5  00000000  00000000  000200d7  2**0
                  CONTENTS, READONLY, DEBUGGING, OCTETS
 14 .debug_abbrev 00000cb4  00000000  00000000  00024dac  2**0
                  CONTENTS, READONLY, DEBUGGING, OCTETS
 15 .debug_loc    00001c32  00000000  00000000  00025a60  2**0
                  CONTENTS, READONLY, DEBUGGING, OCTETS
 16 .debug_aranges 000001f8  00000000  00000000  00027698  2**3
                  CONTENTS, READONLY, DEBUGGING, OCTETS
 17 .debug_ranges 000002d0  00000000  00000000  00027890  2**0
                  CONTENTS, READONLY, DEBUGGING, OCTETS
 18 .debug_line   00001fc0  00000000  00000000  00027b60  2**0
                  CONTENTS, READONLY, DEBUGGING, OCTETS
 19 .debug_str    00001359  00000000  00000000  00029b20  2**0
                  CONTENTS, READONLY, DEBUGGING, OCTETS
 20 .debug_frame  00000474  00000000  00000000  0002ae7c  2**2
                  CONTENTS, READONLY, DEBUGGING, OCTETS
 21 .stab         00000144  00000000  00000000  0002b2f0  2**2
                  CONTENTS, READONLY, DEBUGGING
 22 .stabstr      00000034  00000000  00000000  0002b434  2**0
                  CONTENTS, READONLY, DEBUGGING

Disassembly of section .text:

08000188 <deregister_tm_clones>:
 8000188:	4804      	ldr	r0, [pc, #16]	; (800019c <deregister_tm_clones+0x14>)
 800018a:	4b05      	ldr	r3, [pc, #20]	; (80001a0 <deregister_tm_clones+0x18>)
 800018c:	b510      	push	{r4, lr}
 800018e:	4283      	cmp	r3, r0
 8000190:	d003      	beq.n	800019a <deregister_tm_clones+0x12>
 8000192:	4b04      	ldr	r3, [pc, #16]	; (80001a4 <deregister_tm_clones+0x1c>)
 8000194:	2b00      	cmp	r3, #0
 8000196:	d000      	beq.n	800019a <deregister_tm_clones+0x12>
 8000198:	4798      	blx	r3
 800019a:	bd10      	pop	{r4, pc}
 800019c:	20000008 	.word	0x20000008
 80001a0:	20000008 	.word	0x20000008
 80001a4:	00000000 	.word	0x00000000

080001a8 <register_tm_clones>:
 80001a8:	4806      	ldr	r0, [pc, #24]	; (80001c4 <register_tm_clones+0x1c>)
 80001aa:	4907      	ldr	r1, [pc, #28]	; (80001c8 <register_tm_clones+0x20>)
 80001ac:	1a09      	subs	r1, r1, r0
 80001ae:	108b      	asrs	r3, r1, #2
 80001b0:	0fc9      	lsrs	r1, r1, #31
 80001b2:	18c9      	adds	r1, r1, r3
 80001b4:	b510      	push	{r4, lr}
 80001b6:	1049      	asrs	r1, r1, #1
 80001b8:	d003      	beq.n	80001c2 <register_tm_clones+0x1a>
 80001ba:	4b04      	ldr	r3, [pc, #16]	; (80001cc <register_tm_clones+0x24>)
 80001bc:	2b00      	cmp	r3, #0
 80001be:	d000      	beq.n	80001c2 <register_tm_clones+0x1a>
 80001c0:	4798      	blx	r3
 80001c2:	bd10      	pop	{r4, pc}
 80001c4:	20000008 	.word	0x20000008
 80001c8:	20000008 	.word	0x20000008
 80001cc:	00000000 	.word	0x00000000

080001d0 <__do_global_dtors_aux>:
 80001d0:	b510      	push	{r4, lr}
 80001d2:	4c07      	ldr	r4, [pc, #28]	; (80001f0 <__do_global_dtors_aux+0x20>)
 80001d4:	7823      	ldrb	r3, [r4, #0]
 80001d6:	2b00      	cmp	r3, #0
 80001d8:	d109      	bne.n	80001ee <__do_global_dtors_aux+0x1e>
 80001da:	f7ff ffd5 	bl	8000188 <deregister_tm_clones>
 80001de:	4b05      	ldr	r3, [pc, #20]	; (80001f4 <__do_global_dtors_aux+0x24>)
 80001e0:	2b00      	cmp	r3, #0
 80001e2:	d002      	beq.n	80001ea <__do_global_dtors_aux+0x1a>
 80001e4:	4804      	ldr	r0, [pc, #16]	; (80001f8 <__do_global_dtors_aux+0x28>)
 80001e6:	e000      	b.n	80001ea <__do_global_dtors_aux+0x1a>
 80001e8:	bf00      	nop
 80001ea:	2301      	movs	r3, #1
 80001ec:	7023      	strb	r3, [r4, #0]
 80001ee:	bd10      	pop	{r4, pc}
 80001f0:	20000008 	.word	0x20000008
 80001f4:	00000000 	.word	0x00000000
 80001f8:	08001238 	.word	0x08001238

080001fc <frame_dummy>:
 80001fc:	4b05      	ldr	r3, [pc, #20]	; (8000214 <frame_dummy+0x18>)
 80001fe:	b510      	push	{r4, lr}
 8000200:	2b00      	cmp	r3, #0
 8000202:	d003      	beq.n	800020c <frame_dummy+0x10>
 8000204:	4904      	ldr	r1, [pc, #16]	; (8000218 <frame_dummy+0x1c>)
 8000206:	4805      	ldr	r0, [pc, #20]	; (800021c <frame_dummy+0x20>)
 8000208:	e000      	b.n	800020c <frame_dummy+0x10>
 800020a:	bf00      	nop
 800020c:	f7ff ffcc 	bl	80001a8 <register_tm_clones>
 8000210:	bd10      	pop	{r4, pc}
 8000212:	46c0      	nop			; (mov r8, r8)
 8000214:	00000000 	.word	0x00000000
 8000218:	2000000c 	.word	0x2000000c
 800021c:	08001238 	.word	0x08001238

08000220 <__gnu_thumb1_case_uqi>:
 8000220:	b402      	push	{r1}
 8000222:	4671      	mov	r1, lr
 8000224:	0849      	lsrs	r1, r1, #1
 8000226:	0049      	lsls	r1, r1, #1
 8000228:	5c09      	ldrb	r1, [r1, r0]
 800022a:	0049      	lsls	r1, r1, #1
 800022c:	448e      	add	lr, r1
 800022e:	bc02      	pop	{r1}
 8000230:	4770      	bx	lr
 8000232:	46c0      	nop			; (mov r8, r8)

08000234 <__udivsi3>:
 8000234:	2200      	movs	r2, #0
 8000236:	0843      	lsrs	r3, r0, #1
 8000238:	428b      	cmp	r3, r1
 800023a:	d374      	bcc.n	8000326 <__udivsi3+0xf2>
 800023c:	0903      	lsrs	r3, r0, #4
 800023e:	428b      	cmp	r3, r1
 8000240:	d35f      	bcc.n	8000302 <__udivsi3+0xce>
 8000242:	0a03      	lsrs	r3, r0, #8
 8000244:	428b      	cmp	r3, r1
 8000246:	d344      	bcc.n	80002d2 <__udivsi3+0x9e>
 8000248:	0b03      	lsrs	r3, r0, #12
 800024a:	428b      	cmp	r3, r1
 800024c:	d328      	bcc.n	80002a0 <__udivsi3+0x6c>
 800024e:	0c03      	lsrs	r3, r0, #16
 8000250:	428b      	cmp	r3, r1
 8000252:	d30d      	bcc.n	8000270 <__udivsi3+0x3c>
 8000254:	22ff      	movs	r2, #255	; 0xff
 8000256:	0209      	lsls	r1, r1, #8
 8000258:	ba12      	rev	r2, r2
 800025a:	0c03      	lsrs	r3, r0, #16
 800025c:	428b      	cmp	r3, r1
 800025e:	d302      	bcc.n	8000266 <__udivsi3+0x32>
 8000260:	1212      	asrs	r2, r2, #8
 8000262:	0209      	lsls	r1, r1, #8
 8000264:	d065      	beq.n	8000332 <__udivsi3+0xfe>
 8000266:	0b03      	lsrs	r3, r0, #12
 8000268:	428b      	cmp	r3, r1
 800026a:	d319      	bcc.n	80002a0 <__udivsi3+0x6c>
 800026c:	e000      	b.n	8000270 <__udivsi3+0x3c>
 800026e:	0a09      	lsrs	r1, r1, #8
 8000270:	0bc3      	lsrs	r3, r0, #15
 8000272:	428b      	cmp	r3, r1
 8000274:	d301      	bcc.n	800027a <__udivsi3+0x46>
 8000276:	03cb      	lsls	r3, r1, #15
 8000278:	1ac0      	subs	r0, r0, r3
 800027a:	4152      	adcs	r2, r2
 800027c:	0b83      	lsrs	r3, r0, #14
 800027e:	428b      	cmp	r3, r1
 8000280:	d301      	bcc.n	8000286 <__udivsi3+0x52>
 8000282:	038b      	lsls	r3, r1, #14
 8000284:	1ac0      	subs	r0, r0, r3
 8000286:	4152      	adcs	r2, r2
 8000288:	0b43      	lsrs	r3, r0, #13
 800028a:	428b      	cmp	r3, r1
 800028c:	d301      	bcc.n	8000292 <__udivsi3+0x5e>
 800028e:	034b      	lsls	r3, r1, #13
 8000290:	1ac0      	subs	r0, r0, r3
 8000292:	4152      	adcs	r2, r2
 8000294:	0b03      	lsrs	r3, r0, #12
 8000296:	428b      	cmp	r3, r1
 8000298:	d301      	bcc.n	800029e <__udivsi3+0x6a>
 800029a:	030b      	lsls	r3, r1, #12
 800029c:	1ac0      	subs	r0, r0, r3
 800029e:	4152      	adcs	r2, r2
 80002a0:	0ac3      	lsrs	r3, r0, #11
 80002a2:	428b      	cmp	r3, r1
 80002a4:	d301      	bcc.n	80002aa <__udivsi3+0x76>
 80002a6:	02cb      	lsls	r3, r1, #11
 80002a8:	1ac0      	subs	r0, r0, r3
 80002aa:	4152      	adcs	r2, r2
 80002ac:	0a83      	lsrs	r3, r0, #10
 80002ae:	428b      	cmp	r3, r1
 80002b0:	d301      	bcc.n	80002b6 <__udivsi3+0x82>
 80002b2:	028b      	lsls	r3, r1, #10
 80002b4:	1ac0      	subs	r0, r0, r3
 80002b6:	4152      	adcs	r2, r2
 80002b8:	0a43      	lsrs	r3, r0, #9
 80002ba:	428b      	cmp	r3, r1
 80002bc:	d301      	bcc.n	80002c2 <__udivsi3+0x8e>
 80002be:	024b      	lsls	r3, r1, #9
 80002c0:	1ac0      	subs	r0, r0, r3
 80002c2:	4152      	adcs	r2, r2
 80002c4:	0a03      	lsrs	r3, r0, #8
 80002c6:	428b      	cmp	r3, r1
 80002c8:	d301      	bcc.n	80002ce <__udivsi3+0x9a>
 80002ca:	020b      	lsls	r3, r1, #8
 80002cc:	1ac0      	subs	r0, r0, r3
 80002ce:	4152      	adcs	r2, r2
 80002d0:	d2cd      	bcs.n	800026e <__udivsi3+0x3a>
 80002d2:	09c3      	lsrs	r3, r0, #7
 80002d4:	428b      	cmp	r3, r1
 80002d6:	d301      	bcc.n	80002dc <__udivsi3+0xa8>
 80002d8:	01cb      	lsls	r3, r1, #7
 80002da:	1ac0      	subs	r0, r0, r3
 80002dc:	4152      	adcs	r2, r2
 80002de:	0983      	lsrs	r3, r0, #6
 80002e0:	428b      	cmp	r3, r1
 80002e2:	d301      	bcc.n	80002e8 <__udivsi3+0xb4>
 80002e4:	018b      	lsls	r3, r1, #6
 80002e6:	1ac0      	subs	r0, r0, r3
 80002e8:	4152      	adcs	r2, r2
 80002ea:	0943      	lsrs	r3, r0, #5
 80002ec:	428b      	cmp	r3, r1
 80002ee:	d301      	bcc.n	80002f4 <__udivsi3+0xc0>
 80002f0:	014b      	lsls	r3, r1, #5
 80002f2:	1ac0      	subs	r0, r0, r3
 80002f4:	4152      	adcs	r2, r2
 80002f6:	0903      	lsrs	r3, r0, #4
 80002f8:	428b      	cmp	r3, r1
 80002fa:	d301      	bcc.n	8000300 <__udivsi3+0xcc>
 80002fc:	010b      	lsls	r3, r1, #4
 80002fe:	1ac0      	subs	r0, r0, r3
 8000300:	4152      	adcs	r2, r2
 8000302:	08c3      	lsrs	r3, r0, #3
 8000304:	428b      	cmp	r3, r1
 8000306:	d301      	bcc.n	800030c <__udivsi3+0xd8>
 8000308:	00cb      	lsls	r3, r1, #3
 800030a:	1ac0      	subs	r0, r0, r3
 800030c:	4152      	adcs	r2, r2
 800030e:	0883      	lsrs	r3, r0, #2
 8000310:	428b      	cmp	r3, r1
 8000312:	d301      	bcc.n	8000318 <__udivsi3+0xe4>
 8000314:	008b      	lsls	r3, r1, #2
 8000316:	1ac0      	subs	r0, r0, r3
 8000318:	4152      	adcs	r2, r2
 800031a:	0843      	lsrs	r3, r0, #1
 800031c:	428b      	cmp	r3, r1
 800031e:	d301      	bcc.n	8000324 <__udivsi3+0xf0>
 8000320:	004b      	lsls	r3, r1, #1
 8000322:	1ac0      	subs	r0, r0, r3
 8000324:	4152      	adcs	r2, r2
 8000326:	1a41      	subs	r1, r0, r1
 8000328:	d200      	bcs.n	800032c <__udivsi3+0xf8>
 800032a:	4601      	mov	r1, r0
 800032c:	4152      	adcs	r2, r2
 800032e:	4610      	mov	r0, r2
 8000330:	4770      	bx	lr
 8000332:	e7ff      	b.n	8000334 <__udivsi3+0x100>
 8000334:	b501      	push	{r0, lr}
 8000336:	2000      	movs	r0, #0
 8000338:	f000 f806 	bl	8000348 <__aeabi_idiv0>
 800033c:	bd02      	pop	{r1, pc}
 800033e:	46c0      	nop			; (mov r8, r8)

08000340 <__aeabi_uidivmod>:
 8000340:	2900      	cmp	r1, #0
 8000342:	d0f7      	beq.n	8000334 <__udivsi3+0x100>
 8000344:	e776      	b.n	8000234 <__udivsi3>
 8000346:	4770      	bx	lr

08000348 <__aeabi_idiv0>:
 8000348:	4770      	bx	lr
 800034a:	46c0      	nop			; (mov r8, r8)

0800034c <__libc_init_array>:
 800034c:	b570      	push	{r4, r5, r6, lr}
 800034e:	4d0c      	ldr	r5, [pc, #48]	; (8000380 <__libc_init_array+0x34>)
 8000350:	4e0c      	ldr	r6, [pc, #48]	; (8000384 <__libc_init_array+0x38>)
 8000352:	1b76      	subs	r6, r6, r5
 8000354:	10b6      	asrs	r6, r6, #2
 8000356:	d005      	beq.n	8000364 <__libc_init_array+0x18>
 8000358:	2400      	movs	r4, #0
 800035a:	cd08      	ldmia	r5!, {r3}
 800035c:	3401      	adds	r4, #1
 800035e:	4798      	blx	r3
 8000360:	42a6      	cmp	r6, r4
 8000362:	d1fa      	bne.n	800035a <__libc_init_array+0xe>
 8000364:	f000 ff68 	bl	8001238 <_init>
 8000368:	4d07      	ldr	r5, [pc, #28]	; (8000388 <__libc_init_array+0x3c>)
 800036a:	4e08      	ldr	r6, [pc, #32]	; (800038c <__libc_init_array+0x40>)
 800036c:	1b76      	subs	r6, r6, r5
 800036e:	10b6      	asrs	r6, r6, #2
 8000370:	d005      	beq.n	800037e <__libc_init_array+0x32>
 8000372:	2400      	movs	r4, #0
 8000374:	cd08      	ldmia	r5!, {r3}
 8000376:	3401      	adds	r4, #1
 8000378:	4798      	blx	r3
 800037a:	42a6      	cmp	r6, r4
 800037c:	d1fa      	bne.n	8000374 <__libc_init_array+0x28>
 800037e:	bd70      	pop	{r4, r5, r6, pc}
 8000380:	08001264 	.word	0x08001264
 8000384:	08001264 	.word	0x08001264
 8000388:	08001264 	.word	0x08001264
 800038c:	08001268 	.word	0x08001268

08000390 <multiplier>:

// DUMMY VAL
uint8_t secret[] = {0, 255, 0, 1};

uint8_t multiplier(uint8_t* data, uint8_t dlen)
{
 8000390:	b507      	push	{r0, r1, r2, lr}
  for (int i = 0; i < 4; i++) {
    user_data += ((uint64_t) data[i] << (8*(3-i)));
  }
  uint64_t prod = 0;

  trigger_high();
 8000392:	f000 fa03 	bl	800079c <trigger_high>
  //       prod += (user_data << (j+8*i));
  //     }
  //     for(int i =0; i<3; i++);
  //   }
  // }
  trigger_low();
 8000396:	f000 fa09 	bl	80007ac <trigger_low>

  uint8_t done[] = {'o','k'};
 800039a:	4b04      	ldr	r3, [pc, #16]	; (80003ac <multiplier+0x1c>)
  simpleserial_put('r', 2, done);
 800039c:	2072      	movs	r0, #114	; 0x72
  uint8_t done[] = {'o','k'};
 800039e:	aa01      	add	r2, sp, #4
  simpleserial_put('r', 2, done);
 80003a0:	2102      	movs	r1, #2
  uint8_t done[] = {'o','k'};
 80003a2:	8013      	strh	r3, [r2, #0]
  simpleserial_put('r', 2, done);
 80003a4:	f000 f8b2 	bl	800050c <simpleserial_put>

  return 0x00;
}
 80003a8:	2000      	movs	r0, #0
 80003aa:	bd0e      	pop	{r1, r2, r3, pc}
 80003ac:	00006b6f 	.word	0x00006b6f

080003b0 <verify>:

uint8_t verify(uint8_t* data, uint8_t dlen) {
 80003b0:	b5f7      	push	{r0, r1, r2, r4, r5, r6, r7, lr}
  uint8_t result = 1;
 80003b2:	466b      	mov	r3, sp
 80003b4:	1ddc      	adds	r4, r3, #7
 80003b6:	2301      	movs	r3, #1
  for (int i = 0; i < dlen; i++) {
 80003b8:	2200      	movs	r2, #0
    result *= (secret[i] == data[i]);
 80003ba:	001e      	movs	r6, r3
 80003bc:	4d0c      	ldr	r5, [pc, #48]	; (80003f0 <verify+0x40>)
  uint8_t result = 1;
 80003be:	7023      	strb	r3, [r4, #0]
  for (int i = 0; i < dlen; i++) {
 80003c0:	1949      	adds	r1, r1, r5
 80003c2:	428d      	cmp	r5, r1
 80003c4:	d109      	bne.n	80003da <verify+0x2a>
 80003c6:	2a00      	cmp	r2, #0
 80003c8:	d000      	beq.n	80003cc <verify+0x1c>
 80003ca:	7023      	strb	r3, [r4, #0]
  }
  simpleserial_put('r', 1, &result); // GOAL is to output 1
 80003cc:	0022      	movs	r2, r4
 80003ce:	2101      	movs	r1, #1
 80003d0:	2072      	movs	r0, #114	; 0x72
 80003d2:	f000 f89b 	bl	800050c <simpleserial_put>
  return result;
 80003d6:	7820      	ldrb	r0, [r4, #0]
}
 80003d8:	bdfe      	pop	{r1, r2, r3, r4, r5, r6, r7, pc}
    result *= (secret[i] == data[i]);
 80003da:	7807      	ldrb	r7, [r0, #0]
 80003dc:	782a      	ldrb	r2, [r5, #0]
 80003de:	3001      	adds	r0, #1
 80003e0:	1bd2      	subs	r2, r2, r7
 80003e2:	4257      	negs	r7, r2
 80003e4:	417a      	adcs	r2, r7
 80003e6:	4353      	muls	r3, r2
 80003e8:	3501      	adds	r5, #1
 80003ea:	0032      	movs	r2, r6
 80003ec:	b2db      	uxtb	r3, r3
  for (int i = 0; i < dlen; i++) {
 80003ee:	e7e8      	b.n	80003c2 <verify+0x12>
 80003f0:	20000000 	.word	0x20000000

080003f4 <main>:

int main(void) {
 80003f4:	b510      	push	{r4, lr}

  // RESEARCH TEAMS: Do not use the '*' operator outside of index calculations
  
  platform_init();
 80003f6:	f000 f941 	bl	800067c <platform_init>
  init_uart();
 80003fa:	f000 f96b 	bl	80006d4 <init_uart>
  trigger_setup();
 80003fe:	f000 f9a9 	bl	8000754 <trigger_setup>
  simpleserial_init();
 8000402:	f000 f86b 	bl	80004dc <simpleserial_init>

  simpleserial_addcmd('m', 4, multiplier);
 8000406:	2104      	movs	r1, #4
 8000408:	4a05      	ldr	r2, [pc, #20]	; (8000420 <main+0x2c>)
 800040a:	206d      	movs	r0, #109	; 0x6d
 800040c:	f000 f860 	bl	80004d0 <simpleserial_addcmd>
  simpleserial_addcmd('a', 4, verify);
 8000410:	2104      	movs	r1, #4
 8000412:	2061      	movs	r0, #97	; 0x61
 8000414:	4a03      	ldr	r2, [pc, #12]	; (8000424 <main+0x30>)
 8000416:	f000 f85b 	bl	80004d0 <simpleserial_addcmd>

  while(1) simpleserial_get();
 800041a:	f000 f8c9 	bl	80005b0 <simpleserial_get>
 800041e:	e7fc      	b.n	800041a <main+0x26>
 8000420:	08000391 	.word	0x08000391
 8000424:	080003b1 	.word	0x080003b1

08000428 <check_version>:
// Callback function for "v" command.
// This can exist in v1.0 as long as we don't actually send back an ack ("z")
uint8_t check_version(uint8_t *v, uint8_t len)
{
	return SS_VER;
}
 8000428:	2001      	movs	r0, #1
 800042a:	4770      	bx	lr

0800042c <hex_decode>:
	'0', '1', '2', '3', '4', '5', '6', '7',
	'8', '9', 'A', 'B', 'C', 'D', 'E', 'F'
};

int hex_decode(int len, char* ascii_buf, uint8_t* data_buf)
{
 800042c:	b570      	push	{r4, r5, r6, lr}
	for(int i = 0; i < len; i++)
 800042e:	2400      	movs	r4, #0
 8000430:	4284      	cmp	r4, r0
 8000432:	db01      	blt.n	8000438 <hex_decode+0xc>
			data_buf[i] |= (n_hi - 'a' + 10) << 4;
		else
			return 1;
	}

	return 0;
 8000434:	2000      	movs	r0, #0
 8000436:	e01f      	b.n	8000478 <hex_decode+0x4c>
		char n_lo = ascii_buf[2*i+1];
 8000438:	784d      	ldrb	r5, [r1, #1]
		char n_hi = ascii_buf[2*i];
 800043a:	780b      	ldrb	r3, [r1, #0]
		if(n_lo >= '0' && n_lo <= '9')
 800043c:	002e      	movs	r6, r5
 800043e:	3e30      	subs	r6, #48	; 0x30
 8000440:	b2f6      	uxtb	r6, r6
 8000442:	2e09      	cmp	r6, #9
 8000444:	d80c      	bhi.n	8000460 <hex_decode+0x34>
			data_buf[i] = n_lo - '0';
 8000446:	5516      	strb	r6, [r2, r4]
		if(n_hi >= '0' && n_hi <= '9')
 8000448:	001d      	movs	r5, r3
 800044a:	3d30      	subs	r5, #48	; 0x30
 800044c:	b2ee      	uxtb	r6, r5
 800044e:	2e09      	cmp	r6, #9
 8000450:	d815      	bhi.n	800047e <hex_decode+0x52>
			data_buf[i] |= (n_hi - '0') << 4;
 8000452:	5d13      	ldrb	r3, [r2, r4]
 8000454:	012d      	lsls	r5, r5, #4
 8000456:	431d      	orrs	r5, r3
 8000458:	5515      	strb	r5, [r2, r4]
	for(int i = 0; i < len; i++)
 800045a:	3401      	adds	r4, #1
 800045c:	3102      	adds	r1, #2
 800045e:	e7e7      	b.n	8000430 <hex_decode+0x4>
		else if(n_lo >= 'A' && n_lo <= 'F')
 8000460:	002e      	movs	r6, r5
 8000462:	3e41      	subs	r6, #65	; 0x41
 8000464:	2e05      	cmp	r6, #5
 8000466:	d802      	bhi.n	800046e <hex_decode+0x42>
			data_buf[i] = n_lo - 'A' + 10;
 8000468:	3d37      	subs	r5, #55	; 0x37
			data_buf[i] = n_lo - 'a' + 10;
 800046a:	5515      	strb	r5, [r2, r4]
 800046c:	e7ec      	b.n	8000448 <hex_decode+0x1c>
		else if(n_lo >= 'a' && n_lo <= 'f')
 800046e:	002e      	movs	r6, r5
 8000470:	3e61      	subs	r6, #97	; 0x61
 8000472:	2e05      	cmp	r6, #5
 8000474:	d901      	bls.n	800047a <hex_decode+0x4e>
			return 1;
 8000476:	2001      	movs	r0, #1
}
 8000478:	bd70      	pop	{r4, r5, r6, pc}
			data_buf[i] = n_lo - 'a' + 10;
 800047a:	3d57      	subs	r5, #87	; 0x57
 800047c:	e7f5      	b.n	800046a <hex_decode+0x3e>
		else if(n_hi >= 'A' && n_hi <= 'F')
 800047e:	001d      	movs	r5, r3
 8000480:	3d41      	subs	r5, #65	; 0x41
 8000482:	2d05      	cmp	r5, #5
 8000484:	d805      	bhi.n	8000492 <hex_decode+0x66>
			data_buf[i] |= (n_hi - 'A' + 10) << 4;
 8000486:	3b37      	subs	r3, #55	; 0x37
			data_buf[i] |= (n_hi - 'a' + 10) << 4;
 8000488:	5d15      	ldrb	r5, [r2, r4]
 800048a:	011b      	lsls	r3, r3, #4
 800048c:	432b      	orrs	r3, r5
 800048e:	5513      	strb	r3, [r2, r4]
 8000490:	e7e3      	b.n	800045a <hex_decode+0x2e>
		else if(n_hi >= 'a' && n_hi <= 'f')
 8000492:	001d      	movs	r5, r3
 8000494:	3d61      	subs	r5, #97	; 0x61
 8000496:	2d05      	cmp	r5, #5
 8000498:	d8ed      	bhi.n	8000476 <hex_decode+0x4a>
			data_buf[i] |= (n_hi - 'a' + 10) << 4;
 800049a:	3b57      	subs	r3, #87	; 0x57
 800049c:	e7f4      	b.n	8000488 <hex_decode+0x5c>
 800049e:	0000      	movs	r0, r0

080004a0 <simpleserial_addcmd_flags>:
{
	return simpleserial_addcmd_flags(c, len, fp, CMD_FLAG_NONE);
}

int simpleserial_addcmd_flags(char c, unsigned int len, uint8_t (*fp)(uint8_t*, uint8_t), uint8_t fl)
{
 80004a0:	b5f0      	push	{r4, r5, r6, r7, lr}
	if(num_commands >= MAX_SS_CMDS)
 80004a2:	4e09      	ldr	r6, [pc, #36]	; (80004c8 <simpleserial_addcmd_flags+0x28>)
{
 80004a4:	0005      	movs	r5, r0
	if(num_commands >= MAX_SS_CMDS)
 80004a6:	6834      	ldr	r4, [r6, #0]
		return 1;
 80004a8:	2001      	movs	r0, #1
	if(num_commands >= MAX_SS_CMDS)
 80004aa:	2c0f      	cmp	r4, #15
 80004ac:	dc0b      	bgt.n	80004c6 <simpleserial_addcmd_flags+0x26>

	if(len >= MAX_SS_LEN)
 80004ae:	29bf      	cmp	r1, #191	; 0xbf
 80004b0:	d809      	bhi.n	80004c6 <simpleserial_addcmd_flags+0x26>
		return 1;

	commands[num_commands].c   = c;
 80004b2:	4806      	ldr	r0, [pc, #24]	; (80004cc <simpleserial_addcmd_flags+0x2c>)
 80004b4:	0127      	lsls	r7, r4, #4
 80004b6:	543d      	strb	r5, [r7, r0]
	commands[num_commands].len = len;
 80004b8:	19c0      	adds	r0, r0, r7
 80004ba:	6041      	str	r1, [r0, #4]
	commands[num_commands].fp  = fp;
 80004bc:	6082      	str	r2, [r0, #8]
	commands[num_commands].flags = fl;
 80004be:	7303      	strb	r3, [r0, #12]
	num_commands++;

	return 0;
 80004c0:	2000      	movs	r0, #0
	num_commands++;
 80004c2:	3401      	adds	r4, #1
 80004c4:	6034      	str	r4, [r6, #0]
}
 80004c6:	bdf0      	pop	{r4, r5, r6, r7, pc}
 80004c8:	20000024 	.word	0x20000024
 80004cc:	20000028 	.word	0x20000028

080004d0 <simpleserial_addcmd>:
{
 80004d0:	b510      	push	{r4, lr}
	return simpleserial_addcmd_flags(c, len, fp, CMD_FLAG_NONE);
 80004d2:	2300      	movs	r3, #0
 80004d4:	f7ff ffe4 	bl	80004a0 <simpleserial_addcmd_flags>
}
 80004d8:	bd10      	pop	{r4, pc}
 80004da:	0000      	movs	r0, r0

080004dc <simpleserial_init>:
{
 80004dc:	b510      	push	{r4, lr}
	simpleserial_addcmd('v', 0, check_version);
 80004de:	2100      	movs	r1, #0
 80004e0:	4a07      	ldr	r2, [pc, #28]	; (8000500 <simpleserial_init+0x24>)
 80004e2:	2076      	movs	r0, #118	; 0x76
 80004e4:	f7ff fff4 	bl	80004d0 <simpleserial_addcmd>
    simpleserial_addcmd('w', 0, ss_get_commands);
 80004e8:	2100      	movs	r1, #0
 80004ea:	4a06      	ldr	r2, [pc, #24]	; (8000504 <simpleserial_init+0x28>)
 80004ec:	2077      	movs	r0, #119	; 0x77
 80004ee:	f7ff ffef 	bl	80004d0 <simpleserial_addcmd>
    simpleserial_addcmd('y', 0, ss_num_commands);
 80004f2:	2100      	movs	r1, #0
 80004f4:	2079      	movs	r0, #121	; 0x79
 80004f6:	4a04      	ldr	r2, [pc, #16]	; (8000508 <simpleserial_init+0x2c>)
 80004f8:	f7ff ffea 	bl	80004d0 <simpleserial_addcmd>
}
 80004fc:	bd10      	pop	{r4, pc}
 80004fe:	46c0      	nop			; (mov r8, r8)
 8000500:	08000429 	.word	0x08000429
 8000504:	08000561 	.word	0x08000561
 8000508:	08000545 	.word	0x08000545

0800050c <simpleserial_put>:
	simpleserial_put('z', 1, ret);
#endif
}

void simpleserial_put(char c, uint8_t size, uint8_t* output)
{
 800050c:	b5f8      	push	{r3, r4, r5, r6, r7, lr}
 800050e:	000d      	movs	r5, r1
 8000510:	0014      	movs	r4, r2

	// Write each byte as two nibbles
	for(int i = 0; i < size; i++)
	{
		putch(hex_lookup[output[i] >> 4 ]);
		putch(hex_lookup[output[i] & 0xF]);
 8000512:	270f      	movs	r7, #15
	putch(c);
 8000514:	f000 f96a 	bl	80007ec <putch>
	for(int i = 0; i < size; i++)
 8000518:	1965      	adds	r5, r4, r5
 800051a:	42ac      	cmp	r4, r5
 800051c:	d103      	bne.n	8000526 <simpleserial_put+0x1a>
	}

	// Write trailing '\n'
	putch('\n');
 800051e:	200a      	movs	r0, #10
 8000520:	f000 f964 	bl	80007ec <putch>
}
 8000524:	bdf8      	pop	{r3, r4, r5, r6, r7, pc}
		putch(hex_lookup[output[i] >> 4 ]);
 8000526:	7823      	ldrb	r3, [r4, #0]
 8000528:	4e05      	ldr	r6, [pc, #20]	; (8000540 <simpleserial_put+0x34>)
 800052a:	091b      	lsrs	r3, r3, #4
 800052c:	5cf0      	ldrb	r0, [r6, r3]
 800052e:	f000 f95d 	bl	80007ec <putch>
		putch(hex_lookup[output[i] & 0xF]);
 8000532:	7823      	ldrb	r3, [r4, #0]
 8000534:	3401      	adds	r4, #1
 8000536:	403b      	ands	r3, r7
 8000538:	5cf0      	ldrb	r0, [r6, r3]
 800053a:	f000 f957 	bl	80007ec <putch>
	for(int i = 0; i < size; i++)
 800053e:	e7ec      	b.n	800051a <simpleserial_put+0xe>
 8000540:	08001250 	.word	0x08001250

08000544 <ss_num_commands>:
{
 8000544:	b507      	push	{r0, r1, r2, lr}
    uint8_t ncmds = num_commands & 0xFF;
 8000546:	466b      	mov	r3, sp
 8000548:	1dda      	adds	r2, r3, #7
 800054a:	4b04      	ldr	r3, [pc, #16]	; (800055c <ss_num_commands+0x18>)
    simpleserial_put('r', 0x01, &ncmds);
 800054c:	2072      	movs	r0, #114	; 0x72
    uint8_t ncmds = num_commands & 0xFF;
 800054e:	681b      	ldr	r3, [r3, #0]
    simpleserial_put('r', 0x01, &ncmds);
 8000550:	2101      	movs	r1, #1
    uint8_t ncmds = num_commands & 0xFF;
 8000552:	7013      	strb	r3, [r2, #0]
    simpleserial_put('r', 0x01, &ncmds);
 8000554:	f7ff ffda 	bl	800050c <simpleserial_put>
}
 8000558:	2000      	movs	r0, #0
 800055a:	bd0e      	pop	{r1, r2, r3, pc}
 800055c:	20000024 	.word	0x20000024

08000560 <ss_get_commands>:
    for (uint8_t i = 0; i < (num_commands & 0xFF); i++) {
 8000560:	2203      	movs	r2, #3
 8000562:	4b11      	ldr	r3, [pc, #68]	; (80005a8 <ss_get_commands+0x48>)
{
 8000564:	b5f0      	push	{r4, r5, r6, r7, lr}
 8000566:	4694      	mov	ip, r2
    for (uint8_t i = 0; i < (num_commands & 0xFF); i++) {
 8000568:	681c      	ldr	r4, [r3, #0]
 800056a:	2300      	movs	r3, #0
        repr_cmd_buf[i].c = commands[i].c;
 800056c:	4d0f      	ldr	r5, [pc, #60]	; (80005ac <ss_get_commands+0x4c>)
{
 800056e:	b08d      	sub	sp, #52	; 0x34
    for (uint8_t i = 0; i < (num_commands & 0xFF); i++) {
 8000570:	b2e6      	uxtb	r6, r4
 8000572:	42b3      	cmp	r3, r6
 8000574:	db09      	blt.n	800058a <ss_get_commands+0x2a>
    simpleserial_put('r', num_commands * 0x03, (void *) repr_cmd_buf);
 8000576:	4661      	mov	r1, ip
 8000578:	4361      	muls	r1, r4
 800057a:	466a      	mov	r2, sp
 800057c:	2072      	movs	r0, #114	; 0x72
 800057e:	b2c9      	uxtb	r1, r1
 8000580:	f7ff ffc4 	bl	800050c <simpleserial_put>
}
 8000584:	2000      	movs	r0, #0
 8000586:	b00d      	add	sp, #52	; 0x34
 8000588:	bdf0      	pop	{r4, r5, r6, r7, pc}
        repr_cmd_buf[i].c = commands[i].c;
 800058a:	4662      	mov	r2, ip
 800058c:	4669      	mov	r1, sp
 800058e:	435a      	muls	r2, r3
 8000590:	0118      	lsls	r0, r3, #4
 8000592:	5d47      	ldrb	r7, [r0, r5]
        repr_cmd_buf[i].len = commands[i].len;
 8000594:	1828      	adds	r0, r5, r0
        repr_cmd_buf[i].c = commands[i].c;
 8000596:	548f      	strb	r7, [r1, r2]
        repr_cmd_buf[i].len = commands[i].len;
 8000598:	6841      	ldr	r1, [r0, #4]
        repr_cmd_buf[i].flags = commands[i].flags;
 800059a:	7b00      	ldrb	r0, [r0, #12]
        repr_cmd_buf[i].len = commands[i].len;
 800059c:	446a      	add	r2, sp
    for (uint8_t i = 0; i < (num_commands & 0xFF); i++) {
 800059e:	3301      	adds	r3, #1
        repr_cmd_buf[i].len = commands[i].len;
 80005a0:	7051      	strb	r1, [r2, #1]
        repr_cmd_buf[i].flags = commands[i].flags;
 80005a2:	7090      	strb	r0, [r2, #2]
    for (uint8_t i = 0; i < (num_commands & 0xFF); i++) {
 80005a4:	b2db      	uxtb	r3, r3
 80005a6:	e7e4      	b.n	8000572 <ss_get_commands+0x12>
 80005a8:	20000024 	.word	0x20000024
 80005ac:	20000028 	.word	0x20000028

080005b0 <simpleserial_get>:
{
 80005b0:	b5f0      	push	{r4, r5, r6, r7, lr}
 80005b2:	4c2f      	ldr	r4, [pc, #188]	; (8000670 <simpleserial_get+0xc0>)
 80005b4:	44a5      	add	sp, r4
	c = getch();
 80005b6:	f000 f901 	bl	80007bc <getch>
	for(cmd = 0; cmd < num_commands; cmd++)
 80005ba:	4b2e      	ldr	r3, [pc, #184]	; (8000674 <simpleserial_get+0xc4>)
		if(commands[cmd].c == c)
 80005bc:	492e      	ldr	r1, [pc, #184]	; (8000678 <simpleserial_get+0xc8>)
	for(cmd = 0; cmd < num_commands; cmd++)
 80005be:	681a      	ldr	r2, [r3, #0]
 80005c0:	2300      	movs	r3, #0
 80005c2:	429a      	cmp	r2, r3
 80005c4:	dc04      	bgt.n	80005d0 <simpleserial_get+0x20>
	if(cmd == num_commands)
 80005c6:	d107      	bne.n	80005d8 <simpleserial_get+0x28>
}
 80005c8:	2393      	movs	r3, #147	; 0x93
 80005ca:	009b      	lsls	r3, r3, #2
 80005cc:	449d      	add	sp, r3
 80005ce:	bdf0      	pop	{r4, r5, r6, r7, pc}
		if(commands[cmd].c == c)
 80005d0:	011c      	lsls	r4, r3, #4
 80005d2:	5d0c      	ldrb	r4, [r1, r4]
 80005d4:	4284      	cmp	r4, r0
 80005d6:	d13f      	bne.n	8000658 <simpleserial_get+0xa8>
	if ((commands[cmd].flags & CMD_FLAG_LEN) != 0)
 80005d8:	2701      	movs	r7, #1
 80005da:	4d27      	ldr	r5, [pc, #156]	; (8000678 <simpleserial_get+0xc8>)
 80005dc:	011c      	lsls	r4, r3, #4
 80005de:	192e      	adds	r6, r5, r4
 80005e0:	7b33      	ldrb	r3, [r6, #12]
 80005e2:	423b      	tst	r3, r7
 80005e4:	d018      	beq.n	8000618 <simpleserial_get+0x68>
		uint8_t l = 0;
 80005e6:	2300      	movs	r3, #0
 80005e8:	466a      	mov	r2, sp
 80005ea:	7213      	strb	r3, [r2, #8]
		buff[0] = getch();
 80005ec:	f000 f8e6 	bl	80007bc <getch>
 80005f0:	22c8      	movs	r2, #200	; 0xc8
 80005f2:	466b      	mov	r3, sp
 80005f4:	189b      	adds	r3, r3, r2
 80005f6:	7018      	strb	r0, [r3, #0]
		buff[1] = getch();
 80005f8:	f000 f8e0 	bl	80007bc <getch>
 80005fc:	22c9      	movs	r2, #201	; 0xc9
 80005fe:	466b      	mov	r3, sp
 8000600:	189b      	adds	r3, r3, r2
 8000602:	7018      	strb	r0, [r3, #0]
		if (hex_decode(1, buff, &l))
 8000604:	aa02      	add	r2, sp, #8
 8000606:	0038      	movs	r0, r7
 8000608:	a932      	add	r1, sp, #200	; 0xc8
 800060a:	f7ff ff0f 	bl	800042c <hex_decode>
 800060e:	2800      	cmp	r0, #0
 8000610:	d1da      	bne.n	80005c8 <simpleserial_get+0x18>
		commands[cmd].len = l;
 8000612:	466b      	mov	r3, sp
 8000614:	7a1b      	ldrb	r3, [r3, #8]
 8000616:	6073      	str	r3, [r6, #4]
	for(cmd = 0; cmd < num_commands; cmd++)
 8000618:	2600      	movs	r6, #0
	for(int i = 0; i < 2*commands[cmd].len; i++)
 800061a:	192b      	adds	r3, r5, r4
 800061c:	685b      	ldr	r3, [r3, #4]
 800061e:	005b      	lsls	r3, r3, #1
 8000620:	42b3      	cmp	r3, r6
 8000622:	d81b      	bhi.n	800065c <simpleserial_get+0xac>
	c = getch();
 8000624:	f000 f8ca 	bl	80007bc <getch>
	if(c != '\n' && c != '\r')
 8000628:	280a      	cmp	r0, #10
 800062a:	d001      	beq.n	8000630 <simpleserial_get+0x80>
 800062c:	280d      	cmp	r0, #13
 800062e:	d1cb      	bne.n	80005c8 <simpleserial_get+0x18>
	if(hex_decode(commands[cmd].len, ascii_buf, data_buf))
 8000630:	192c      	adds	r4, r5, r4
 8000632:	6865      	ldr	r5, [r4, #4]
 8000634:	aa02      	add	r2, sp, #8
 8000636:	0028      	movs	r0, r5
 8000638:	a932      	add	r1, sp, #200	; 0xc8
 800063a:	f7ff fef7 	bl	800042c <hex_decode>
 800063e:	2800      	cmp	r0, #0
 8000640:	d1c2      	bne.n	80005c8 <simpleserial_get+0x18>
	ret[0] = commands[cmd].fp(data_buf, commands[cmd].len);
 8000642:	b2e9      	uxtb	r1, r5
 8000644:	68a3      	ldr	r3, [r4, #8]
 8000646:	a802      	add	r0, sp, #8
 8000648:	4798      	blx	r3
 800064a:	aa01      	add	r2, sp, #4
 800064c:	7010      	strb	r0, [r2, #0]
	simpleserial_put('z', 1, ret);
 800064e:	2101      	movs	r1, #1
 8000650:	207a      	movs	r0, #122	; 0x7a
 8000652:	f7ff ff5b 	bl	800050c <simpleserial_put>
 8000656:	e7b7      	b.n	80005c8 <simpleserial_get+0x18>
	for(cmd = 0; cmd < num_commands; cmd++)
 8000658:	3301      	adds	r3, #1
 800065a:	e7b2      	b.n	80005c2 <simpleserial_get+0x12>
		c = getch();
 800065c:	f000 f8ae 	bl	80007bc <getch>
		if(c == '\n' || c == '\r')
 8000660:	280a      	cmp	r0, #10
 8000662:	d0b1      	beq.n	80005c8 <simpleserial_get+0x18>
 8000664:	280d      	cmp	r0, #13
 8000666:	d0af      	beq.n	80005c8 <simpleserial_get+0x18>
		ascii_buf[i] = c;
 8000668:	ab32      	add	r3, sp, #200	; 0xc8
 800066a:	54f0      	strb	r0, [r6, r3]
	for(int i = 0; i < 2*commands[cmd].len; i++)
 800066c:	3601      	adds	r6, #1
 800066e:	e7d4      	b.n	800061a <simpleserial_get+0x6a>
 8000670:	fffffdb4 	.word	0xfffffdb4
 8000674:	20000024 	.word	0x20000024
 8000678:	20000028 	.word	0x20000028

0800067c <platform_init>:

UART_HandleTypeDef UartHandle;


void platform_init(void)
{
 800067c:	b5f0      	push	{r4, r5, r6, r7, lr}
    GPIO_InitTypeDef GpioInit;
	GpioInit.Pin       = GPIO_PIN_2;
	GpioInit.Mode      = GPIO_MODE_OUTPUT_PP;
	GpioInit.Pull      = GPIO_NOPULL;
	GpioInit.Speed     = GPIO_SPEED_FREQ_HIGH;
	HAL_GPIO_Init(GPIOA, &GpioInit);
 800067e:	2790      	movs	r7, #144	; 0x90
	GpioInit.Pull      = GPIO_NOPULL;
 8000680:	2400      	movs	r4, #0
	GpioInit.Mode      = GPIO_MODE_OUTPUT_PP;
 8000682:	2501      	movs	r5, #1
	GpioInit.Speed     = GPIO_SPEED_FREQ_HIGH;
 8000684:	2603      	movs	r6, #3
	GpioInit.Pin       = GPIO_PIN_2;
 8000686:	2304      	movs	r3, #4
{
 8000688:	b097      	sub	sp, #92	; 0x5c
	HAL_GPIO_Init(GPIOA, &GpioInit);
 800068a:	05ff      	lsls	r7, r7, #23
 800068c:	0038      	movs	r0, r7
 800068e:	a905      	add	r1, sp, #20
	GpioInit.Pin       = GPIO_PIN_2;
 8000690:	9305      	str	r3, [sp, #20]
	GpioInit.Mode      = GPIO_MODE_OUTPUT_PP;
 8000692:	9506      	str	r5, [sp, #24]
	GpioInit.Pull      = GPIO_NOPULL;
 8000694:	9407      	str	r4, [sp, #28]
	GpioInit.Speed     = GPIO_SPEED_FREQ_HIGH;
 8000696:	9608      	str	r6, [sp, #32]
	HAL_GPIO_Init(GPIOA, &GpioInit);
 8000698:	f000 fb2a 	bl	8000cf0 <HAL_GPIO_Init>
    
	GpioInit.Pin       = GPIO_PIN_4;
 800069c:	2310      	movs	r3, #16
	GpioInit.Mode      = GPIO_MODE_OUTPUT_PP;
	GpioInit.Pull      = GPIO_NOPULL;
	GpioInit.Speed     = GPIO_SPEED_FREQ_HIGH;
	HAL_GPIO_Init(GPIOA, &GpioInit);
 800069e:	a905      	add	r1, sp, #20
 80006a0:	0038      	movs	r0, r7
	GpioInit.Pin       = GPIO_PIN_4;
 80006a2:	9305      	str	r3, [sp, #20]
	GpioInit.Mode      = GPIO_MODE_OUTPUT_PP;
 80006a4:	9506      	str	r5, [sp, #24]
	GpioInit.Pull      = GPIO_NOPULL;
 80006a6:	9407      	str	r4, [sp, #28]
	GpioInit.Speed     = GPIO_SPEED_FREQ_HIGH;
 80006a8:	9608      	str	r6, [sp, #32]
	HAL_GPIO_Init(GPIOA, &GpioInit);
 80006aa:	f000 fb21 	bl	8000cf0 <HAL_GPIO_Init>
  uint32_t flash_latency = 0;
  HAL_RCC_ClockConfig(&RCC_ClkInitStruct, flash_latency);
#else
	RCC_OscInitTypeDef RCC_OscInitStruct;
	RCC_OscInitStruct.OscillatorType = RCC_OSCILLATORTYPE_HSE | RCC_OSCILLATORTYPE_HSI;
	RCC_OscInitStruct.HSEState       = RCC_HSE_BYPASS;
 80006ae:	2305      	movs	r3, #5
	RCC_OscInitStruct.HSIState       = RCC_HSI_OFF;
	RCC_OscInitStruct.PLL.PLLSource  = RCC_PLL_NONE;
	HAL_RCC_OscConfig(&RCC_OscInitStruct);
 80006b0:	a80a      	add	r0, sp, #40	; 0x28
	RCC_OscInitStruct.HSEState       = RCC_HSE_BYPASS;
 80006b2:	930b      	str	r3, [sp, #44]	; 0x2c
	RCC_OscInitStruct.OscillatorType = RCC_OSCILLATORTYPE_HSE | RCC_OSCILLATORTYPE_HSI;
 80006b4:	960a      	str	r6, [sp, #40]	; 0x28
	RCC_OscInitStruct.HSIState       = RCC_HSI_OFF;
 80006b6:	940d      	str	r4, [sp, #52]	; 0x34
	RCC_OscInitStruct.PLL.PLLSource  = RCC_PLL_NONE;
 80006b8:	9413      	str	r4, [sp, #76]	; 0x4c
	HAL_RCC_OscConfig(&RCC_OscInitStruct);
 80006ba:	f000 f8ad 	bl	8000818 <HAL_RCC_OscConfig>

	RCC_ClkInitTypeDef RCC_ClkInitStruct;
	RCC_ClkInitStruct.ClockType      = (RCC_CLOCKTYPE_SYSCLK | RCC_CLOCKTYPE_HCLK | RCC_CLOCKTYPE_PCLK1);
 80006be:	2307      	movs	r3, #7
	RCC_ClkInitStruct.SYSCLKSource   = RCC_SYSCLKSOURCE_HSE;
	RCC_ClkInitStruct.AHBCLKDivider  = RCC_SYSCLK_DIV1;
	RCC_ClkInitStruct.APB1CLKDivider = RCC_HCLK_DIV1;
	HAL_RCC_ClockConfig(&RCC_ClkInitStruct, FLASH_LATENCY_0);
 80006c0:	0021      	movs	r1, r4
 80006c2:	a801      	add	r0, sp, #4
	RCC_ClkInitStruct.ClockType      = (RCC_CLOCKTYPE_SYSCLK | RCC_CLOCKTYPE_HCLK | RCC_CLOCKTYPE_PCLK1);
 80006c4:	9301      	str	r3, [sp, #4]
	RCC_ClkInitStruct.SYSCLKSource   = RCC_SYSCLKSOURCE_HSE;
 80006c6:	9502      	str	r5, [sp, #8]
	RCC_ClkInitStruct.AHBCLKDivider  = RCC_SYSCLK_DIV1;
 80006c8:	9403      	str	r4, [sp, #12]
	RCC_ClkInitStruct.APB1CLKDivider = RCC_HCLK_DIV1;
 80006ca:	9404      	str	r4, [sp, #16]
	HAL_RCC_ClockConfig(&RCC_ClkInitStruct, FLASH_LATENCY_0);
 80006cc:	f000 fa86 	bl	8000bdc <HAL_RCC_ClockConfig>
#endif
}
 80006d0:	b017      	add	sp, #92	; 0x5c
 80006d2:	bdf0      	pop	{r4, r5, r6, r7, pc}

080006d4 <init_uart>:

void init_uart(void)
{
	__HAL_RCC_GPIOA_CLK_ENABLE();
 80006d4:	2180      	movs	r1, #128	; 0x80
{
 80006d6:	b570      	push	{r4, r5, r6, lr}
	__HAL_RCC_GPIOA_CLK_ENABLE();
 80006d8:	4c1b      	ldr	r4, [pc, #108]	; (8000748 <init_uart+0x74>)
 80006da:	0289      	lsls	r1, r1, #10
 80006dc:	6962      	ldr	r2, [r4, #20]
{
 80006de:	b088      	sub	sp, #32
	__HAL_RCC_GPIOA_CLK_ENABLE();
 80006e0:	430a      	orrs	r2, r1
 80006e2:	6162      	str	r2, [r4, #20]
 80006e4:	6963      	ldr	r3, [r4, #20]
	GpioInit.Pin       = GPIO_PIN_9 | GPIO_PIN_10;
	GpioInit.Mode      = GPIO_MODE_AF_PP;
	GpioInit.Pull      = GPIO_PULLUP;
	GpioInit.Speed     = GPIO_SPEED_FREQ_HIGH;
	GpioInit.Alternate = GPIO_AF1_USART1;
	HAL_GPIO_Init(GPIOA, &GpioInit);
 80006e6:	2090      	movs	r0, #144	; 0x90
	__HAL_RCC_GPIOA_CLK_ENABLE();
 80006e8:	400b      	ands	r3, r1
 80006ea:	9301      	str	r3, [sp, #4]
 80006ec:	9b01      	ldr	r3, [sp, #4]
	GpioInit.Pin       = GPIO_PIN_9 | GPIO_PIN_10;
 80006ee:	23c0      	movs	r3, #192	; 0xc0
 80006f0:	00db      	lsls	r3, r3, #3
	GpioInit.Pull      = GPIO_PULLUP;
 80006f2:	2501      	movs	r5, #1
	GpioInit.Speed     = GPIO_SPEED_FREQ_HIGH;
 80006f4:	2603      	movs	r6, #3
	GpioInit.Pin       = GPIO_PIN_9 | GPIO_PIN_10;
 80006f6:	9303      	str	r3, [sp, #12]
	GpioInit.Mode      = GPIO_MODE_AF_PP;
 80006f8:	2302      	movs	r3, #2
	HAL_GPIO_Init(GPIOA, &GpioInit);
 80006fa:	a903      	add	r1, sp, #12
 80006fc:	05c0      	lsls	r0, r0, #23
	GpioInit.Mode      = GPIO_MODE_AF_PP;
 80006fe:	9304      	str	r3, [sp, #16]
	GpioInit.Pull      = GPIO_PULLUP;
 8000700:	9505      	str	r5, [sp, #20]
	GpioInit.Alternate = GPIO_AF1_USART1;
 8000702:	9507      	str	r5, [sp, #28]
	GpioInit.Speed     = GPIO_SPEED_FREQ_HIGH;
 8000704:	9606      	str	r6, [sp, #24]
	HAL_GPIO_Init(GPIOA, &GpioInit);
 8000706:	f000 faf3 	bl	8000cf0 <HAL_GPIO_Init>

	__HAL_RCC_USART1_CLK_ENABLE();
 800070a:	2180      	movs	r1, #128	; 0x80
 800070c:	69a2      	ldr	r2, [r4, #24]
 800070e:	01c9      	lsls	r1, r1, #7
 8000710:	430a      	orrs	r2, r1
 8000712:	61a2      	str	r2, [r4, #24]
 8000714:	69a3      	ldr	r3, [r4, #24]
	__HAL_RCC_USART1_CONFIG(RCC_USART1CLKSOURCE_SYSCLK);
	UartHandle.Instance        = USART1;
 8000716:	480d      	ldr	r0, [pc, #52]	; (800074c <init_uart+0x78>)
	__HAL_RCC_USART1_CLK_ENABLE();
 8000718:	400b      	ands	r3, r1
 800071a:	9302      	str	r3, [sp, #8]
 800071c:	9b02      	ldr	r3, [sp, #8]
	__HAL_RCC_USART1_CONFIG(RCC_USART1CLKSOURCE_SYSCLK);
 800071e:	6b23      	ldr	r3, [r4, #48]	; 0x30
 8000720:	43b3      	bics	r3, r6
 8000722:	431d      	orrs	r5, r3
	UartHandle.Instance        = USART1;
 8000724:	4b0a      	ldr	r3, [pc, #40]	; (8000750 <init_uart+0x7c>)
	__HAL_RCC_USART1_CONFIG(RCC_USART1CLKSOURCE_SYSCLK);
 8000726:	6325      	str	r5, [r4, #48]	; 0x30
	UartHandle.Instance        = USART1;
 8000728:	6003      	str	r3, [r0, #0]
  #if SS_VER==SS_VER_2_1
  UartHandle.Init.BaudRate   = 230400;
  #else
  UartHandle.Init.BaudRate   = 38400;
 800072a:	2396      	movs	r3, #150	; 0x96
 800072c:	021b      	lsls	r3, r3, #8
 800072e:	6043      	str	r3, [r0, #4]
  #endif
	UartHandle.Init.WordLength = UART_WORDLENGTH_8B;
 8000730:	2300      	movs	r3, #0
 8000732:	6083      	str	r3, [r0, #8]
	UartHandle.Init.StopBits   = UART_STOPBITS_1;
 8000734:	60c3      	str	r3, [r0, #12]
	UartHandle.Init.Parity     = UART_PARITY_NONE;
 8000736:	6103      	str	r3, [r0, #16]
	UartHandle.Init.HwFlowCtl  = UART_HWCONTROL_NONE;
 8000738:	6183      	str	r3, [r0, #24]
	UartHandle.Init.Mode       = UART_MODE_TX_RX;
 800073a:	330c      	adds	r3, #12
 800073c:	6143      	str	r3, [r0, #20]
	HAL_UART_Init(&UartHandle);
 800073e:	f000 fc41 	bl	8000fc4 <HAL_UART_Init>
}
 8000742:	b008      	add	sp, #32
 8000744:	bd70      	pop	{r4, r5, r6, pc}
 8000746:	46c0      	nop			; (mov r8, r8)
 8000748:	40021000 	.word	0x40021000
 800074c:	2000012c 	.word	0x2000012c
 8000750:	40013800 	.word	0x40013800

08000754 <trigger_setup>:

void trigger_setup(void)
{
	__HAL_RCC_GPIOA_CLK_ENABLE();
 8000754:	2080      	movs	r0, #128	; 0x80
 8000756:	4a10      	ldr	r2, [pc, #64]	; (8000798 <trigger_setup+0x44>)
{
 8000758:	b570      	push	{r4, r5, r6, lr}
	__HAL_RCC_GPIOA_CLK_ENABLE();
 800075a:	6951      	ldr	r1, [r2, #20]
 800075c:	0280      	lsls	r0, r0, #10
 800075e:	4301      	orrs	r1, r0
 8000760:	6151      	str	r1, [r2, #20]
 8000762:	6953      	ldr	r3, [r2, #20]
{
 8000764:	b086      	sub	sp, #24
	__HAL_RCC_GPIOA_CLK_ENABLE();
 8000766:	4003      	ands	r3, r0
 8000768:	9300      	str	r3, [sp, #0]
	GPIO_InitTypeDef GpioInit;
	GpioInit.Pin       = GPIO_PIN_7;
	GpioInit.Mode      = GPIO_MODE_OUTPUT_PP;
	GpioInit.Pull      = GPIO_NOPULL;
	GpioInit.Speed     = GPIO_SPEED_FREQ_HIGH;
	HAL_GPIO_Init(GPIOA, &GpioInit);
 800076a:	2490      	movs	r4, #144	; 0x90
	__HAL_RCC_GPIOA_CLK_ENABLE();
 800076c:	9b00      	ldr	r3, [sp, #0]
	GpioInit.Mode      = GPIO_MODE_OUTPUT_PP;
 800076e:	2301      	movs	r3, #1
	GpioInit.Pin       = GPIO_PIN_7;
 8000770:	2580      	movs	r5, #128	; 0x80
	GpioInit.Pull      = GPIO_NOPULL;
 8000772:	2600      	movs	r6, #0
	HAL_GPIO_Init(GPIOA, &GpioInit);
 8000774:	05e4      	lsls	r4, r4, #23
 8000776:	0020      	movs	r0, r4
	GpioInit.Mode      = GPIO_MODE_OUTPUT_PP;
 8000778:	9302      	str	r3, [sp, #8]
	HAL_GPIO_Init(GPIOA, &GpioInit);
 800077a:	a901      	add	r1, sp, #4
	GpioInit.Speed     = GPIO_SPEED_FREQ_HIGH;
 800077c:	3302      	adds	r3, #2
 800077e:	9304      	str	r3, [sp, #16]
	GpioInit.Pin       = GPIO_PIN_7;
 8000780:	9501      	str	r5, [sp, #4]
	GpioInit.Pull      = GPIO_NOPULL;
 8000782:	9603      	str	r6, [sp, #12]
	HAL_GPIO_Init(GPIOA, &GpioInit);
 8000784:	f000 fab4 	bl	8000cf0 <HAL_GPIO_Init>
	
	HAL_GPIO_WritePin(GPIOA, GPIO_PIN_7, RESET);
 8000788:	0032      	movs	r2, r6
 800078a:	0029      	movs	r1, r5
 800078c:	0020      	movs	r0, r4
 800078e:	f000 fb61 	bl	8000e54 <HAL_GPIO_WritePin>
}
 8000792:	b006      	add	sp, #24
 8000794:	bd70      	pop	{r4, r5, r6, pc}
 8000796:	46c0      	nop			; (mov r8, r8)
 8000798:	40021000 	.word	0x40021000

0800079c <trigger_high>:

void trigger_high(void)
{
	HAL_GPIO_WritePin(GPIOA, GPIO_PIN_7, SET);
 800079c:	2090      	movs	r0, #144	; 0x90
{
 800079e:	b510      	push	{r4, lr}
	HAL_GPIO_WritePin(GPIOA, GPIO_PIN_7, SET);
 80007a0:	2201      	movs	r2, #1
 80007a2:	2180      	movs	r1, #128	; 0x80
 80007a4:	05c0      	lsls	r0, r0, #23
 80007a6:	f000 fb55 	bl	8000e54 <HAL_GPIO_WritePin>
}
 80007aa:	bd10      	pop	{r4, pc}

080007ac <trigger_low>:

void trigger_low(void)
{
	HAL_GPIO_WritePin(GPIOA, GPIO_PIN_7, RESET);
 80007ac:	2090      	movs	r0, #144	; 0x90
{
 80007ae:	b510      	push	{r4, lr}
	HAL_GPIO_WritePin(GPIOA, GPIO_PIN_7, RESET);
 80007b0:	2200      	movs	r2, #0
 80007b2:	2180      	movs	r1, #128	; 0x80
 80007b4:	05c0      	lsls	r0, r0, #23
 80007b6:	f000 fb4d 	bl	8000e54 <HAL_GPIO_WritePin>
}   
 80007ba:	bd10      	pop	{r4, pc}

080007bc <getch>:

char getch(void)
{
 80007bc:	b537      	push	{r0, r1, r2, r4, r5, lr}
	uint8_t d;
	while(HAL_UART_Receive(&UartHandle, &d, 1, 50) != HAL_OK)
		USART1->ICR |= (1 << 3); // make sure overrun error is cleared, otherwise can stall here
 80007be:	2508      	movs	r5, #8
	while(HAL_UART_Receive(&UartHandle, &d, 1, 50) != HAL_OK)
 80007c0:	466b      	mov	r3, sp
 80007c2:	1ddc      	adds	r4, r3, #7
 80007c4:	2201      	movs	r2, #1
 80007c6:	2332      	movs	r3, #50	; 0x32
 80007c8:	0021      	movs	r1, r4
 80007ca:	4806      	ldr	r0, [pc, #24]	; (80007e4 <getch+0x28>)
 80007cc:	f000 fc2c 	bl	8001028 <HAL_UART_Receive>
 80007d0:	2800      	cmp	r0, #0
 80007d2:	d101      	bne.n	80007d8 <getch+0x1c>
	return d;
 80007d4:	7820      	ldrb	r0, [r4, #0]
}
 80007d6:	bd3e      	pop	{r1, r2, r3, r4, r5, pc}
		USART1->ICR |= (1 << 3); // make sure overrun error is cleared, otherwise can stall here
 80007d8:	4a03      	ldr	r2, [pc, #12]	; (80007e8 <getch+0x2c>)
 80007da:	6a13      	ldr	r3, [r2, #32]
 80007dc:	432b      	orrs	r3, r5
 80007de:	6213      	str	r3, [r2, #32]
 80007e0:	e7ee      	b.n	80007c0 <getch+0x4>
 80007e2:	46c0      	nop			; (mov r8, r8)
 80007e4:	2000012c 	.word	0x2000012c
 80007e8:	40013800 	.word	0x40013800

080007ec <putch>:

void putch(char c)
{
 80007ec:	b507      	push	{r0, r1, r2, lr}
	uint8_t d  = c;
 80007ee:	466b      	mov	r3, sp
	HAL_UART_Transmit(&UartHandle,  &d, 1, 5000);
 80007f0:	2201      	movs	r2, #1
	uint8_t d  = c;
 80007f2:	1dd9      	adds	r1, r3, #7
 80007f4:	7008      	strb	r0, [r1, #0]
	HAL_UART_Transmit(&UartHandle,  &d, 1, 5000);
 80007f6:	4b02      	ldr	r3, [pc, #8]	; (8000800 <putch+0x14>)
 80007f8:	4802      	ldr	r0, [pc, #8]	; (8000804 <putch+0x18>)
 80007fa:	f000 fc8d 	bl	8001118 <HAL_UART_Transmit>
}
 80007fe:	bd07      	pop	{r0, r1, r2, pc}
 8000800:	00001388 	.word	0x00001388
 8000804:	2000012c 	.word	0x2000012c

08000808 <HAL_GetTick>:
#define assert_param(expr) ((void)0U)

uint32_t HAL_GetTick(void)
{
	static uint32_t tick;
	return tick++;;
 8000808:	4b02      	ldr	r3, [pc, #8]	; (8000814 <HAL_GetTick+0xc>)
 800080a:	6818      	ldr	r0, [r3, #0]
 800080c:	1c42      	adds	r2, r0, #1
 800080e:	601a      	str	r2, [r3, #0]
}
 8000810:	4770      	bx	lr
 8000812:	46c0      	nop			; (mov r8, r8)
 8000814:	20000128 	.word	0x20000128

08000818 <HAL_RCC_OscConfig>:
  *         supported by this macro. User should request a transition to HSE Off
  *         first and then HSE On or HSE Bypass.
  * @retval HAL status
  */
HAL_StatusTypeDef HAL_RCC_OscConfig(RCC_OscInitTypeDef  *RCC_OscInitStruct)
{
 8000818:	b5f0      	push	{r4, r5, r6, r7, lr}
  /* Check the parameters */
  assert_param(RCC_OscInitStruct != NULL);
  assert_param(IS_RCC_OSCILLATORTYPE(RCC_OscInitStruct->OscillatorType));

  /*------------------------------- HSE Configuration ------------------------*/ 
  if(((RCC_OscInitStruct->OscillatorType) & RCC_OSCILLATORTYPE_HSE) == RCC_OSCILLATORTYPE_HSE)
 800081a:	6803      	ldr	r3, [r0, #0]
{
 800081c:	0005      	movs	r5, r0
 800081e:	b085      	sub	sp, #20
  if(((RCC_OscInitStruct->OscillatorType) & RCC_OSCILLATORTYPE_HSE) == RCC_OSCILLATORTYPE_HSE)
 8000820:	07db      	lsls	r3, r3, #31
 8000822:	d42f      	bmi.n	8000884 <HAL_RCC_OscConfig+0x6c>
        }
      }
    }
  }
  /*----------------------------- HSI Configuration --------------------------*/ 
  if(((RCC_OscInitStruct->OscillatorType) & RCC_OSCILLATORTYPE_HSI) == RCC_OSCILLATORTYPE_HSI)
 8000824:	682b      	ldr	r3, [r5, #0]
 8000826:	079b      	lsls	r3, r3, #30
 8000828:	d500      	bpl.n	800082c <HAL_RCC_OscConfig+0x14>
 800082a:	e081      	b.n	8000930 <HAL_RCC_OscConfig+0x118>
        }
      }
    }
  }
  /*------------------------------ LSI Configuration -------------------------*/ 
  if(((RCC_OscInitStruct->OscillatorType) & RCC_OSCILLATORTYPE_LSI) == RCC_OSCILLATORTYPE_LSI)
 800082c:	682b      	ldr	r3, [r5, #0]
 800082e:	071b      	lsls	r3, r3, #28
 8000830:	d500      	bpl.n	8000834 <HAL_RCC_OscConfig+0x1c>
 8000832:	e0bc      	b.n	80009ae <HAL_RCC_OscConfig+0x196>
        }
      }
    }
  }
  /*------------------------------ LSE Configuration -------------------------*/ 
  if(((RCC_OscInitStruct->OscillatorType) & RCC_OSCILLATORTYPE_LSE) == RCC_OSCILLATORTYPE_LSE)
 8000834:	682b      	ldr	r3, [r5, #0]
 8000836:	075b      	lsls	r3, r3, #29
 8000838:	d500      	bpl.n	800083c <HAL_RCC_OscConfig+0x24>
 800083a:	e0df      	b.n	80009fc <HAL_RCC_OscConfig+0x1e4>
      __HAL_RCC_PWR_CLK_DISABLE();
    }
  }

  /*----------------------------- HSI14 Configuration --------------------------*/
  if(((RCC_OscInitStruct->OscillatorType) & RCC_OSCILLATORTYPE_HSI14) == RCC_OSCILLATORTYPE_HSI14)
 800083c:	682b      	ldr	r3, [r5, #0]
 800083e:	06db      	lsls	r3, r3, #27
 8000840:	d51a      	bpl.n	8000878 <HAL_RCC_OscConfig+0x60>
    /* Check the parameters */
    assert_param(IS_RCC_HSI14(RCC_OscInitStruct->HSI14State));
    assert_param(IS_RCC_CALIBRATION_VALUE(RCC_OscInitStruct->HSI14CalibrationValue));

    /* Check the HSI14 State */
    if(RCC_OscInitStruct->HSI14State == RCC_HSI14_ON)
 8000842:	696a      	ldr	r2, [r5, #20]
 8000844:	2304      	movs	r3, #4
 8000846:	4cb5      	ldr	r4, [pc, #724]	; (8000b1c <HAL_RCC_OscConfig+0x304>)
 8000848:	2a01      	cmp	r2, #1
 800084a:	d000      	beq.n	800084e <HAL_RCC_OscConfig+0x36>
 800084c:	e14a      	b.n	8000ae4 <HAL_RCC_OscConfig+0x2cc>
    {
      /* Disable ADC control of the Internal High Speed oscillator HSI14 */
      __HAL_RCC_HSI14ADC_DISABLE();
 800084e:	6b61      	ldr	r1, [r4, #52]	; 0x34

      /* Get Start Tick */
      tickstart = HAL_GetTick();
      
      /* Wait till HSI is ready */  
      while(__HAL_RCC_GET_FLAG(RCC_FLAG_HSI14RDY) == RESET)
 8000850:	2702      	movs	r7, #2
      __HAL_RCC_HSI14ADC_DISABLE();
 8000852:	430b      	orrs	r3, r1
 8000854:	6363      	str	r3, [r4, #52]	; 0x34
      __HAL_RCC_HSI14_ENABLE();
 8000856:	6b63      	ldr	r3, [r4, #52]	; 0x34
 8000858:	431a      	orrs	r2, r3
 800085a:	6362      	str	r2, [r4, #52]	; 0x34
      tickstart = HAL_GetTick();
 800085c:	f7ff ffd4 	bl	8000808 <HAL_GetTick>
 8000860:	0006      	movs	r6, r0
      while(__HAL_RCC_GET_FLAG(RCC_FLAG_HSI14RDY) == RESET)
 8000862:	6b63      	ldr	r3, [r4, #52]	; 0x34
 8000864:	423b      	tst	r3, r7
 8000866:	d100      	bne.n	800086a <HAL_RCC_OscConfig+0x52>
 8000868:	e135      	b.n	8000ad6 <HAL_RCC_OscConfig+0x2be>
    {
      /* Enable ADC control of the Internal High Speed oscillator HSI14 */
      __HAL_RCC_HSI14ADC_ENABLE();

      /* Adjusts the Internal High Speed oscillator 14Mhz (HSI14) calibration value. */
      __HAL_RCC_HSI14_CALIBRATIONVALUE_ADJUST(RCC_OscInitStruct->HSI14CalibrationValue);
 800086a:	21f8      	movs	r1, #248	; 0xf8
 800086c:	6b62      	ldr	r2, [r4, #52]	; 0x34
 800086e:	69ab      	ldr	r3, [r5, #24]
 8000870:	438a      	bics	r2, r1
 8000872:	00db      	lsls	r3, r3, #3
 8000874:	4313      	orrs	r3, r2
 8000876:	6363      	str	r3, [r4, #52]	; 0x34
#endif /* RCC_HSI48_SUPPORT */
       
  /*-------------------------------- PLL Configuration -----------------------*/
  /* Check the parameters */
  assert_param(IS_RCC_PLL(RCC_OscInitStruct->PLL.PLLState));
  if ((RCC_OscInitStruct->PLL.PLLState) != RCC_PLL_NONE)
 8000878:	6a29      	ldr	r1, [r5, #32]
 800087a:	2900      	cmp	r1, #0
 800087c:	d000      	beq.n	8000880 <HAL_RCC_OscConfig+0x68>
 800087e:	e159      	b.n	8000b34 <HAL_RCC_OscConfig+0x31c>
    {
      return HAL_ERROR;
    }
  }
  
  return HAL_OK;
 8000880:	2000      	movs	r0, #0
 8000882:	e013      	b.n	80008ac <HAL_RCC_OscConfig+0x94>
    if((__HAL_RCC_GET_SYSCLK_SOURCE() == RCC_SYSCLKSOURCE_STATUS_HSE) 
 8000884:	210c      	movs	r1, #12
 8000886:	4ca5      	ldr	r4, [pc, #660]	; (8000b1c <HAL_RCC_OscConfig+0x304>)
 8000888:	6862      	ldr	r2, [r4, #4]
 800088a:	400a      	ands	r2, r1
 800088c:	2a04      	cmp	r2, #4
 800088e:	d006      	beq.n	800089e <HAL_RCC_OscConfig+0x86>
       || ((__HAL_RCC_GET_SYSCLK_SOURCE() == RCC_SYSCLKSOURCE_STATUS_PLLCLK) && (__HAL_RCC_GET_PLL_OSCSOURCE() == RCC_PLLSOURCE_HSE)))
 8000890:	6863      	ldr	r3, [r4, #4]
 8000892:	400b      	ands	r3, r1
 8000894:	2b08      	cmp	r3, #8
 8000896:	d10b      	bne.n	80008b0 <HAL_RCC_OscConfig+0x98>
 8000898:	6863      	ldr	r3, [r4, #4]
 800089a:	03db      	lsls	r3, r3, #15
 800089c:	d508      	bpl.n	80008b0 <HAL_RCC_OscConfig+0x98>
      if((__HAL_RCC_GET_FLAG(RCC_FLAG_HSERDY) != RESET) && (RCC_OscInitStruct->HSEState == RCC_HSE_OFF))
 800089e:	6823      	ldr	r3, [r4, #0]
 80008a0:	039b      	lsls	r3, r3, #14
 80008a2:	d5bf      	bpl.n	8000824 <HAL_RCC_OscConfig+0xc>
 80008a4:	686b      	ldr	r3, [r5, #4]
 80008a6:	2b00      	cmp	r3, #0
 80008a8:	d1bc      	bne.n	8000824 <HAL_RCC_OscConfig+0xc>
        return HAL_ERROR;
 80008aa:	2001      	movs	r0, #1
}
 80008ac:	b005      	add	sp, #20
 80008ae:	bdf0      	pop	{r4, r5, r6, r7, pc}
      __HAL_RCC_HSE_CONFIG(RCC_OscInitStruct->HSEState);
 80008b0:	686b      	ldr	r3, [r5, #4]
 80008b2:	2b01      	cmp	r3, #1
 80008b4:	d113      	bne.n	80008de <HAL_RCC_OscConfig+0xc6>
 80008b6:	2380      	movs	r3, #128	; 0x80
 80008b8:	6822      	ldr	r2, [r4, #0]
 80008ba:	025b      	lsls	r3, r3, #9
 80008bc:	4313      	orrs	r3, r2
 80008be:	6023      	str	r3, [r4, #0]
        tickstart = HAL_GetTick();
 80008c0:	f7ff ffa2 	bl	8000808 <HAL_GetTick>
        while(__HAL_RCC_GET_FLAG(RCC_FLAG_HSERDY) == RESET)
 80008c4:	2780      	movs	r7, #128	; 0x80
        tickstart = HAL_GetTick();
 80008c6:	0006      	movs	r6, r0
        while(__HAL_RCC_GET_FLAG(RCC_FLAG_HSERDY) == RESET)
 80008c8:	02bf      	lsls	r7, r7, #10
 80008ca:	6823      	ldr	r3, [r4, #0]
 80008cc:	423b      	tst	r3, r7
 80008ce:	d1a9      	bne.n	8000824 <HAL_RCC_OscConfig+0xc>
          if((HAL_GetTick() - tickstart ) > HSE_TIMEOUT_VALUE)
 80008d0:	f7ff ff9a 	bl	8000808 <HAL_GetTick>
 80008d4:	1b80      	subs	r0, r0, r6
 80008d6:	2864      	cmp	r0, #100	; 0x64
 80008d8:	d9f7      	bls.n	80008ca <HAL_RCC_OscConfig+0xb2>
            return HAL_TIMEOUT;
 80008da:	2003      	movs	r0, #3
 80008dc:	e7e6      	b.n	80008ac <HAL_RCC_OscConfig+0x94>
      __HAL_RCC_HSE_CONFIG(RCC_OscInitStruct->HSEState);
 80008de:	2b00      	cmp	r3, #0
 80008e0:	d116      	bne.n	8000910 <HAL_RCC_OscConfig+0xf8>
 80008e2:	6823      	ldr	r3, [r4, #0]
 80008e4:	4a8e      	ldr	r2, [pc, #568]	; (8000b20 <HAL_RCC_OscConfig+0x308>)
        while(__HAL_RCC_GET_FLAG(RCC_FLAG_HSERDY) != RESET)
 80008e6:	2780      	movs	r7, #128	; 0x80
      __HAL_RCC_HSE_CONFIG(RCC_OscInitStruct->HSEState);
 80008e8:	4013      	ands	r3, r2
 80008ea:	6023      	str	r3, [r4, #0]
 80008ec:	6823      	ldr	r3, [r4, #0]
 80008ee:	4a8d      	ldr	r2, [pc, #564]	; (8000b24 <HAL_RCC_OscConfig+0x30c>)
        while(__HAL_RCC_GET_FLAG(RCC_FLAG_HSERDY) != RESET)
 80008f0:	02bf      	lsls	r7, r7, #10
      __HAL_RCC_HSE_CONFIG(RCC_OscInitStruct->HSEState);
 80008f2:	4013      	ands	r3, r2
 80008f4:	6023      	str	r3, [r4, #0]
        tickstart = HAL_GetTick();
 80008f6:	f7ff ff87 	bl	8000808 <HAL_GetTick>
 80008fa:	0006      	movs	r6, r0
        while(__HAL_RCC_GET_FLAG(RCC_FLAG_HSERDY) != RESET)
 80008fc:	6823      	ldr	r3, [r4, #0]
 80008fe:	423b      	tst	r3, r7
 8000900:	d100      	bne.n	8000904 <HAL_RCC_OscConfig+0xec>
 8000902:	e78f      	b.n	8000824 <HAL_RCC_OscConfig+0xc>
           if((HAL_GetTick() - tickstart ) > HSE_TIMEOUT_VALUE)
 8000904:	f7ff ff80 	bl	8000808 <HAL_GetTick>
 8000908:	1b80      	subs	r0, r0, r6
 800090a:	2864      	cmp	r0, #100	; 0x64
 800090c:	d9f6      	bls.n	80008fc <HAL_RCC_OscConfig+0xe4>
 800090e:	e7e4      	b.n	80008da <HAL_RCC_OscConfig+0xc2>
      __HAL_RCC_HSE_CONFIG(RCC_OscInitStruct->HSEState);
 8000910:	2b05      	cmp	r3, #5
 8000912:	d105      	bne.n	8000920 <HAL_RCC_OscConfig+0x108>
 8000914:	2380      	movs	r3, #128	; 0x80
 8000916:	6822      	ldr	r2, [r4, #0]
 8000918:	02db      	lsls	r3, r3, #11
 800091a:	4313      	orrs	r3, r2
 800091c:	6023      	str	r3, [r4, #0]
 800091e:	e7ca      	b.n	80008b6 <HAL_RCC_OscConfig+0x9e>
 8000920:	6823      	ldr	r3, [r4, #0]
 8000922:	4a7f      	ldr	r2, [pc, #508]	; (8000b20 <HAL_RCC_OscConfig+0x308>)
 8000924:	4013      	ands	r3, r2
 8000926:	6023      	str	r3, [r4, #0]
 8000928:	6823      	ldr	r3, [r4, #0]
 800092a:	4a7e      	ldr	r2, [pc, #504]	; (8000b24 <HAL_RCC_OscConfig+0x30c>)
 800092c:	4013      	ands	r3, r2
 800092e:	e7c6      	b.n	80008be <HAL_RCC_OscConfig+0xa6>
    if((__HAL_RCC_GET_SYSCLK_SOURCE() == RCC_SYSCLKSOURCE_STATUS_HSI) 
 8000930:	220c      	movs	r2, #12
 8000932:	4c7a      	ldr	r4, [pc, #488]	; (8000b1c <HAL_RCC_OscConfig+0x304>)
 8000934:	6863      	ldr	r3, [r4, #4]
 8000936:	4213      	tst	r3, r2
 8000938:	d006      	beq.n	8000948 <HAL_RCC_OscConfig+0x130>
       || ((__HAL_RCC_GET_SYSCLK_SOURCE() == RCC_SYSCLKSOURCE_STATUS_PLLCLK) && (__HAL_RCC_GET_PLL_OSCSOURCE() == RCC_PLLSOURCE_HSI)))
 800093a:	6863      	ldr	r3, [r4, #4]
 800093c:	4013      	ands	r3, r2
 800093e:	2b08      	cmp	r3, #8
 8000940:	d110      	bne.n	8000964 <HAL_RCC_OscConfig+0x14c>
 8000942:	6863      	ldr	r3, [r4, #4]
 8000944:	03db      	lsls	r3, r3, #15
 8000946:	d40d      	bmi.n	8000964 <HAL_RCC_OscConfig+0x14c>
      if((__HAL_RCC_GET_FLAG(RCC_FLAG_HSIRDY) != RESET) && (RCC_OscInitStruct->HSIState != RCC_HSI_ON))
 8000948:	6823      	ldr	r3, [r4, #0]
 800094a:	079b      	lsls	r3, r3, #30
 800094c:	d502      	bpl.n	8000954 <HAL_RCC_OscConfig+0x13c>
 800094e:	68eb      	ldr	r3, [r5, #12]
 8000950:	2b01      	cmp	r3, #1
 8000952:	d1aa      	bne.n	80008aa <HAL_RCC_OscConfig+0x92>
        __HAL_RCC_HSI_CALIBRATIONVALUE_ADJUST(RCC_OscInitStruct->HSICalibrationValue);
 8000954:	21f8      	movs	r1, #248	; 0xf8
 8000956:	6822      	ldr	r2, [r4, #0]
 8000958:	692b      	ldr	r3, [r5, #16]
 800095a:	438a      	bics	r2, r1
 800095c:	00db      	lsls	r3, r3, #3
 800095e:	4313      	orrs	r3, r2
 8000960:	6023      	str	r3, [r4, #0]
 8000962:	e763      	b.n	800082c <HAL_RCC_OscConfig+0x14>
      if(RCC_OscInitStruct->HSIState != RCC_HSI_OFF)
 8000964:	68ea      	ldr	r2, [r5, #12]
 8000966:	2301      	movs	r3, #1
 8000968:	2a00      	cmp	r2, #0
 800096a:	d00f      	beq.n	800098c <HAL_RCC_OscConfig+0x174>
        __HAL_RCC_HSI_ENABLE();
 800096c:	6822      	ldr	r2, [r4, #0]
        while(__HAL_RCC_GET_FLAG(RCC_FLAG_HSIRDY) == RESET)
 800096e:	2702      	movs	r7, #2
        __HAL_RCC_HSI_ENABLE();
 8000970:	4313      	orrs	r3, r2
 8000972:	6023      	str	r3, [r4, #0]
        tickstart = HAL_GetTick();
 8000974:	f7ff ff48 	bl	8000808 <HAL_GetTick>
 8000978:	0006      	movs	r6, r0
        while(__HAL_RCC_GET_FLAG(RCC_FLAG_HSIRDY) == RESET)
 800097a:	6823      	ldr	r3, [r4, #0]
 800097c:	423b      	tst	r3, r7
 800097e:	d1e9      	bne.n	8000954 <HAL_RCC_OscConfig+0x13c>
          if((HAL_GetTick() - tickstart ) > HSI_TIMEOUT_VALUE)
 8000980:	f7ff ff42 	bl	8000808 <HAL_GetTick>
 8000984:	1b80      	subs	r0, r0, r6
 8000986:	2802      	cmp	r0, #2
 8000988:	d9f7      	bls.n	800097a <HAL_RCC_OscConfig+0x162>
 800098a:	e7a6      	b.n	80008da <HAL_RCC_OscConfig+0xc2>
        __HAL_RCC_HSI_DISABLE();
 800098c:	6822      	ldr	r2, [r4, #0]
        while(__HAL_RCC_GET_FLAG(RCC_FLAG_HSIRDY) != RESET)
 800098e:	2702      	movs	r7, #2
        __HAL_RCC_HSI_DISABLE();
 8000990:	439a      	bics	r2, r3
 8000992:	6022      	str	r2, [r4, #0]
        tickstart = HAL_GetTick();
 8000994:	f7ff ff38 	bl	8000808 <HAL_GetTick>
 8000998:	0006      	movs	r6, r0
        while(__HAL_RCC_GET_FLAG(RCC_FLAG_HSIRDY) != RESET)
 800099a:	6823      	ldr	r3, [r4, #0]
 800099c:	423b      	tst	r3, r7
 800099e:	d100      	bne.n	80009a2 <HAL_RCC_OscConfig+0x18a>
 80009a0:	e744      	b.n	800082c <HAL_RCC_OscConfig+0x14>
          if((HAL_GetTick() - tickstart ) > HSI_TIMEOUT_VALUE)
 80009a2:	f7ff ff31 	bl	8000808 <HAL_GetTick>
 80009a6:	1b80      	subs	r0, r0, r6
 80009a8:	2802      	cmp	r0, #2
 80009aa:	d9f6      	bls.n	800099a <HAL_RCC_OscConfig+0x182>
 80009ac:	e795      	b.n	80008da <HAL_RCC_OscConfig+0xc2>
    if(RCC_OscInitStruct->LSIState != RCC_LSI_OFF)
 80009ae:	69ea      	ldr	r2, [r5, #28]
 80009b0:	2301      	movs	r3, #1
 80009b2:	4c5a      	ldr	r4, [pc, #360]	; (8000b1c <HAL_RCC_OscConfig+0x304>)
 80009b4:	2a00      	cmp	r2, #0
 80009b6:	d010      	beq.n	80009da <HAL_RCC_OscConfig+0x1c2>
      __HAL_RCC_LSI_ENABLE();
 80009b8:	6a62      	ldr	r2, [r4, #36]	; 0x24
      while(__HAL_RCC_GET_FLAG(RCC_FLAG_LSIRDY) == RESET)
 80009ba:	2702      	movs	r7, #2
      __HAL_RCC_LSI_ENABLE();
 80009bc:	4313      	orrs	r3, r2
 80009be:	6263      	str	r3, [r4, #36]	; 0x24
      tickstart = HAL_GetTick();
 80009c0:	f7ff ff22 	bl	8000808 <HAL_GetTick>
 80009c4:	0006      	movs	r6, r0
      while(__HAL_RCC_GET_FLAG(RCC_FLAG_LSIRDY) == RESET)
 80009c6:	6a63      	ldr	r3, [r4, #36]	; 0x24
 80009c8:	423b      	tst	r3, r7
 80009ca:	d000      	beq.n	80009ce <HAL_RCC_OscConfig+0x1b6>
 80009cc:	e732      	b.n	8000834 <HAL_RCC_OscConfig+0x1c>
        if((HAL_GetTick() - tickstart ) > LSI_TIMEOUT_VALUE)
 80009ce:	f7ff ff1b 	bl	8000808 <HAL_GetTick>
 80009d2:	1b80      	subs	r0, r0, r6
 80009d4:	2802      	cmp	r0, #2
 80009d6:	d9f6      	bls.n	80009c6 <HAL_RCC_OscConfig+0x1ae>
 80009d8:	e77f      	b.n	80008da <HAL_RCC_OscConfig+0xc2>
      __HAL_RCC_LSI_DISABLE();
 80009da:	6a62      	ldr	r2, [r4, #36]	; 0x24
      while(__HAL_RCC_GET_FLAG(RCC_FLAG_LSIRDY) != RESET)
 80009dc:	2702      	movs	r7, #2
      __HAL_RCC_LSI_DISABLE();
 80009de:	439a      	bics	r2, r3
 80009e0:	6262      	str	r2, [r4, #36]	; 0x24
      tickstart = HAL_GetTick();
 80009e2:	f7ff ff11 	bl	8000808 <HAL_GetTick>
 80009e6:	0006      	movs	r6, r0
      while(__HAL_RCC_GET_FLAG(RCC_FLAG_LSIRDY) != RESET)
 80009e8:	6a63      	ldr	r3, [r4, #36]	; 0x24
 80009ea:	423b      	tst	r3, r7
 80009ec:	d100      	bne.n	80009f0 <HAL_RCC_OscConfig+0x1d8>
 80009ee:	e721      	b.n	8000834 <HAL_RCC_OscConfig+0x1c>
        if((HAL_GetTick() - tickstart ) > LSI_TIMEOUT_VALUE)
 80009f0:	f7ff ff0a 	bl	8000808 <HAL_GetTick>
 80009f4:	1b80      	subs	r0, r0, r6
 80009f6:	2802      	cmp	r0, #2
 80009f8:	d9f6      	bls.n	80009e8 <HAL_RCC_OscConfig+0x1d0>
 80009fa:	e76e      	b.n	80008da <HAL_RCC_OscConfig+0xc2>
    if(__HAL_RCC_PWR_IS_CLK_DISABLED())
 80009fc:	2280      	movs	r2, #128	; 0x80
    FlagStatus       pwrclkchanged = RESET;
 80009fe:	2100      	movs	r1, #0
    if(__HAL_RCC_PWR_IS_CLK_DISABLED())
 8000a00:	4c46      	ldr	r4, [pc, #280]	; (8000b1c <HAL_RCC_OscConfig+0x304>)
 8000a02:	0552      	lsls	r2, r2, #21
 8000a04:	69e3      	ldr	r3, [r4, #28]
    FlagStatus       pwrclkchanged = RESET;
 8000a06:	9100      	str	r1, [sp, #0]
    if(__HAL_RCC_PWR_IS_CLK_DISABLED())
 8000a08:	4213      	tst	r3, r2
 8000a0a:	d108      	bne.n	8000a1e <HAL_RCC_OscConfig+0x206>
      __HAL_RCC_PWR_CLK_ENABLE();
 8000a0c:	69e3      	ldr	r3, [r4, #28]
 8000a0e:	4313      	orrs	r3, r2
 8000a10:	61e3      	str	r3, [r4, #28]
 8000a12:	69e3      	ldr	r3, [r4, #28]
 8000a14:	4013      	ands	r3, r2
 8000a16:	9303      	str	r3, [sp, #12]
 8000a18:	9b03      	ldr	r3, [sp, #12]
      pwrclkchanged = SET;
 8000a1a:	2301      	movs	r3, #1
 8000a1c:	9300      	str	r3, [sp, #0]
    if(HAL_IS_BIT_CLR(PWR->CR, PWR_CR_DBP))
 8000a1e:	2780      	movs	r7, #128	; 0x80
 8000a20:	4e41      	ldr	r6, [pc, #260]	; (8000b28 <HAL_RCC_OscConfig+0x310>)
 8000a22:	007f      	lsls	r7, r7, #1
 8000a24:	6833      	ldr	r3, [r6, #0]
 8000a26:	423b      	tst	r3, r7
 8000a28:	d006      	beq.n	8000a38 <HAL_RCC_OscConfig+0x220>
    __HAL_RCC_LSE_CONFIG(RCC_OscInitStruct->LSEState);
 8000a2a:	68ab      	ldr	r3, [r5, #8]
 8000a2c:	2b01      	cmp	r3, #1
 8000a2e:	d113      	bne.n	8000a58 <HAL_RCC_OscConfig+0x240>
 8000a30:	6a22      	ldr	r2, [r4, #32]
 8000a32:	4313      	orrs	r3, r2
 8000a34:	6223      	str	r3, [r4, #32]
 8000a36:	e030      	b.n	8000a9a <HAL_RCC_OscConfig+0x282>
      SET_BIT(PWR->CR, PWR_CR_DBP);
 8000a38:	6833      	ldr	r3, [r6, #0]
 8000a3a:	433b      	orrs	r3, r7
 8000a3c:	6033      	str	r3, [r6, #0]
      tickstart = HAL_GetTick();
 8000a3e:	f7ff fee3 	bl	8000808 <HAL_GetTick>
 8000a42:	9001      	str	r0, [sp, #4]
      while(HAL_IS_BIT_CLR(PWR->CR, PWR_CR_DBP))
 8000a44:	6833      	ldr	r3, [r6, #0]
 8000a46:	423b      	tst	r3, r7
 8000a48:	d1ef      	bne.n	8000a2a <HAL_RCC_OscConfig+0x212>
        if((HAL_GetTick() - tickstart) > RCC_DBP_TIMEOUT_VALUE)
 8000a4a:	f7ff fedd 	bl	8000808 <HAL_GetTick>
 8000a4e:	9b01      	ldr	r3, [sp, #4]
 8000a50:	1ac0      	subs	r0, r0, r3
 8000a52:	2864      	cmp	r0, #100	; 0x64
 8000a54:	d9f6      	bls.n	8000a44 <HAL_RCC_OscConfig+0x22c>
 8000a56:	e740      	b.n	80008da <HAL_RCC_OscConfig+0xc2>
    __HAL_RCC_LSE_CONFIG(RCC_OscInitStruct->LSEState);
 8000a58:	2201      	movs	r2, #1
 8000a5a:	2b00      	cmp	r3, #0
 8000a5c:	d114      	bne.n	8000a88 <HAL_RCC_OscConfig+0x270>
 8000a5e:	6a23      	ldr	r3, [r4, #32]
      while(__HAL_RCC_GET_FLAG(RCC_FLAG_LSERDY) != RESET)
 8000a60:	2702      	movs	r7, #2
    __HAL_RCC_LSE_CONFIG(RCC_OscInitStruct->LSEState);
 8000a62:	4393      	bics	r3, r2
 8000a64:	6223      	str	r3, [r4, #32]
 8000a66:	6a23      	ldr	r3, [r4, #32]
 8000a68:	3203      	adds	r2, #3
 8000a6a:	4393      	bics	r3, r2
 8000a6c:	6223      	str	r3, [r4, #32]
      tickstart = HAL_GetTick();
 8000a6e:	f7ff fecb 	bl	8000808 <HAL_GetTick>
 8000a72:	0006      	movs	r6, r0
      while(__HAL_RCC_GET_FLAG(RCC_FLAG_LSERDY) != RESET)
 8000a74:	6a23      	ldr	r3, [r4, #32]
 8000a76:	423b      	tst	r3, r7
 8000a78:	d016      	beq.n	8000aa8 <HAL_RCC_OscConfig+0x290>
        if((HAL_GetTick() - tickstart ) > RCC_LSE_TIMEOUT_VALUE)
 8000a7a:	f7ff fec5 	bl	8000808 <HAL_GetTick>
 8000a7e:	4b2b      	ldr	r3, [pc, #172]	; (8000b2c <HAL_RCC_OscConfig+0x314>)
 8000a80:	1b80      	subs	r0, r0, r6
 8000a82:	4298      	cmp	r0, r3
 8000a84:	d9f6      	bls.n	8000a74 <HAL_RCC_OscConfig+0x25c>
 8000a86:	e728      	b.n	80008da <HAL_RCC_OscConfig+0xc2>
    __HAL_RCC_LSE_CONFIG(RCC_OscInitStruct->LSEState);
 8000a88:	2b05      	cmp	r3, #5
 8000a8a:	d116      	bne.n	8000aba <HAL_RCC_OscConfig+0x2a2>
 8000a8c:	6a21      	ldr	r1, [r4, #32]
 8000a8e:	3b01      	subs	r3, #1
 8000a90:	430b      	orrs	r3, r1
 8000a92:	6223      	str	r3, [r4, #32]
 8000a94:	6a23      	ldr	r3, [r4, #32]
 8000a96:	431a      	orrs	r2, r3
 8000a98:	6222      	str	r2, [r4, #32]
      tickstart = HAL_GetTick();
 8000a9a:	f7ff feb5 	bl	8000808 <HAL_GetTick>
      while(__HAL_RCC_GET_FLAG(RCC_FLAG_LSERDY) == RESET)
 8000a9e:	2702      	movs	r7, #2
      tickstart = HAL_GetTick();
 8000aa0:	0006      	movs	r6, r0
      while(__HAL_RCC_GET_FLAG(RCC_FLAG_LSERDY) == RESET)
 8000aa2:	6a23      	ldr	r3, [r4, #32]
 8000aa4:	423b      	tst	r3, r7
 8000aa6:	d00f      	beq.n	8000ac8 <HAL_RCC_OscConfig+0x2b0>
    if(pwrclkchanged == SET)
 8000aa8:	9b00      	ldr	r3, [sp, #0]
 8000aaa:	2b01      	cmp	r3, #1
 8000aac:	d000      	beq.n	8000ab0 <HAL_RCC_OscConfig+0x298>
 8000aae:	e6c5      	b.n	800083c <HAL_RCC_OscConfig+0x24>
      __HAL_RCC_PWR_CLK_DISABLE();
 8000ab0:	69e3      	ldr	r3, [r4, #28]
 8000ab2:	4a1f      	ldr	r2, [pc, #124]	; (8000b30 <HAL_RCC_OscConfig+0x318>)
 8000ab4:	4013      	ands	r3, r2
 8000ab6:	61e3      	str	r3, [r4, #28]
 8000ab8:	e6c0      	b.n	800083c <HAL_RCC_OscConfig+0x24>
    __HAL_RCC_LSE_CONFIG(RCC_OscInitStruct->LSEState);
 8000aba:	6a23      	ldr	r3, [r4, #32]
 8000abc:	4393      	bics	r3, r2
 8000abe:	2204      	movs	r2, #4
 8000ac0:	6223      	str	r3, [r4, #32]
 8000ac2:	6a23      	ldr	r3, [r4, #32]
 8000ac4:	4393      	bics	r3, r2
 8000ac6:	e7b5      	b.n	8000a34 <HAL_RCC_OscConfig+0x21c>
        if((HAL_GetTick() - tickstart ) > RCC_LSE_TIMEOUT_VALUE)
 8000ac8:	f7ff fe9e 	bl	8000808 <HAL_GetTick>
 8000acc:	4b17      	ldr	r3, [pc, #92]	; (8000b2c <HAL_RCC_OscConfig+0x314>)
 8000ace:	1b80      	subs	r0, r0, r6
 8000ad0:	4298      	cmp	r0, r3
 8000ad2:	d9e6      	bls.n	8000aa2 <HAL_RCC_OscConfig+0x28a>
 8000ad4:	e701      	b.n	80008da <HAL_RCC_OscConfig+0xc2>
        if((HAL_GetTick() - tickstart) > HSI14_TIMEOUT_VALUE)
 8000ad6:	f7ff fe97 	bl	8000808 <HAL_GetTick>
 8000ada:	1b80      	subs	r0, r0, r6
 8000adc:	2802      	cmp	r0, #2
 8000ade:	d800      	bhi.n	8000ae2 <HAL_RCC_OscConfig+0x2ca>
 8000ae0:	e6bf      	b.n	8000862 <HAL_RCC_OscConfig+0x4a>
 8000ae2:	e6fa      	b.n	80008da <HAL_RCC_OscConfig+0xc2>
    else if(RCC_OscInitStruct->HSI14State == RCC_HSI14_ADC_CONTROL)
 8000ae4:	3205      	adds	r2, #5
 8000ae6:	d103      	bne.n	8000af0 <HAL_RCC_OscConfig+0x2d8>
      __HAL_RCC_HSI14ADC_ENABLE();
 8000ae8:	6b62      	ldr	r2, [r4, #52]	; 0x34
 8000aea:	439a      	bics	r2, r3
 8000aec:	6362      	str	r2, [r4, #52]	; 0x34
 8000aee:	e6bc      	b.n	800086a <HAL_RCC_OscConfig+0x52>
      __HAL_RCC_HSI14ADC_DISABLE();
 8000af0:	6b62      	ldr	r2, [r4, #52]	; 0x34
      while(__HAL_RCC_GET_FLAG(RCC_FLAG_HSI14RDY) != RESET)
 8000af2:	2702      	movs	r7, #2
      __HAL_RCC_HSI14ADC_DISABLE();
 8000af4:	4313      	orrs	r3, r2
      __HAL_RCC_HSI14_DISABLE();
 8000af6:	2201      	movs	r2, #1
      __HAL_RCC_HSI14ADC_DISABLE();
 8000af8:	6363      	str	r3, [r4, #52]	; 0x34
      __HAL_RCC_HSI14_DISABLE();
 8000afa:	6b63      	ldr	r3, [r4, #52]	; 0x34
 8000afc:	4393      	bics	r3, r2
 8000afe:	6363      	str	r3, [r4, #52]	; 0x34
      tickstart = HAL_GetTick();
 8000b00:	f7ff fe82 	bl	8000808 <HAL_GetTick>
 8000b04:	0006      	movs	r6, r0
      while(__HAL_RCC_GET_FLAG(RCC_FLAG_HSI14RDY) != RESET)
 8000b06:	6b63      	ldr	r3, [r4, #52]	; 0x34
 8000b08:	423b      	tst	r3, r7
 8000b0a:	d100      	bne.n	8000b0e <HAL_RCC_OscConfig+0x2f6>
 8000b0c:	e6b4      	b.n	8000878 <HAL_RCC_OscConfig+0x60>
        if((HAL_GetTick() - tickstart) > HSI14_TIMEOUT_VALUE)
 8000b0e:	f7ff fe7b 	bl	8000808 <HAL_GetTick>
 8000b12:	1b80      	subs	r0, r0, r6
 8000b14:	2802      	cmp	r0, #2
 8000b16:	d9f6      	bls.n	8000b06 <HAL_RCC_OscConfig+0x2ee>
 8000b18:	e6df      	b.n	80008da <HAL_RCC_OscConfig+0xc2>
 8000b1a:	46c0      	nop			; (mov r8, r8)
 8000b1c:	40021000 	.word	0x40021000
 8000b20:	fffeffff 	.word	0xfffeffff
 8000b24:	fffbffff 	.word	0xfffbffff
 8000b28:	40007000 	.word	0x40007000
 8000b2c:	00001388 	.word	0x00001388
 8000b30:	efffffff 	.word	0xefffffff
    if(__HAL_RCC_GET_SYSCLK_SOURCE() != RCC_SYSCLKSOURCE_STATUS_PLLCLK)
 8000b34:	220c      	movs	r2, #12
 8000b36:	4c26      	ldr	r4, [pc, #152]	; (8000bd0 <HAL_RCC_OscConfig+0x3b8>)
      return HAL_ERROR;
 8000b38:	2001      	movs	r0, #1
    if(__HAL_RCC_GET_SYSCLK_SOURCE() != RCC_SYSCLKSOURCE_STATUS_PLLCLK)
 8000b3a:	6863      	ldr	r3, [r4, #4]
 8000b3c:	4013      	ands	r3, r2
 8000b3e:	2b08      	cmp	r3, #8
 8000b40:	d100      	bne.n	8000b44 <HAL_RCC_OscConfig+0x32c>
 8000b42:	e6b3      	b.n	80008ac <HAL_RCC_OscConfig+0x94>
        __HAL_RCC_PLL_DISABLE();
 8000b44:	6823      	ldr	r3, [r4, #0]
 8000b46:	4a23      	ldr	r2, [pc, #140]	; (8000bd4 <HAL_RCC_OscConfig+0x3bc>)
 8000b48:	4013      	ands	r3, r2
 8000b4a:	6023      	str	r3, [r4, #0]
      if((RCC_OscInitStruct->PLL.PLLState) == RCC_PLL_ON)
 8000b4c:	2902      	cmp	r1, #2
 8000b4e:	d12f      	bne.n	8000bb0 <HAL_RCC_OscConfig+0x398>
        tickstart = HAL_GetTick();
 8000b50:	f7ff fe5a 	bl	8000808 <HAL_GetTick>
        while(__HAL_RCC_GET_FLAG(RCC_FLAG_PLLRDY)  != RESET)
 8000b54:	2780      	movs	r7, #128	; 0x80
        tickstart = HAL_GetTick();
 8000b56:	0006      	movs	r6, r0
        while(__HAL_RCC_GET_FLAG(RCC_FLAG_PLLRDY)  != RESET)
 8000b58:	04bf      	lsls	r7, r7, #18
 8000b5a:	6823      	ldr	r3, [r4, #0]
 8000b5c:	423b      	tst	r3, r7
 8000b5e:	d121      	bne.n	8000ba4 <HAL_RCC_OscConfig+0x38c>
        __HAL_RCC_PLL_CONFIG(RCC_OscInitStruct->PLL.PLLSource,
 8000b60:	220f      	movs	r2, #15
 8000b62:	6ae3      	ldr	r3, [r4, #44]	; 0x2c
        while(__HAL_RCC_GET_FLAG(RCC_FLAG_PLLRDY)  == RESET)
 8000b64:	2680      	movs	r6, #128	; 0x80
        __HAL_RCC_PLL_CONFIG(RCC_OscInitStruct->PLL.PLLSource,
 8000b66:	4393      	bics	r3, r2
 8000b68:	6aea      	ldr	r2, [r5, #44]	; 0x2c
        while(__HAL_RCC_GET_FLAG(RCC_FLAG_PLLRDY)  == RESET)
 8000b6a:	04b6      	lsls	r6, r6, #18
        __HAL_RCC_PLL_CONFIG(RCC_OscInitStruct->PLL.PLLSource,
 8000b6c:	4313      	orrs	r3, r2
 8000b6e:	62e3      	str	r3, [r4, #44]	; 0x2c
 8000b70:	6a69      	ldr	r1, [r5, #36]	; 0x24
 8000b72:	6aab      	ldr	r3, [r5, #40]	; 0x28
 8000b74:	6862      	ldr	r2, [r4, #4]
 8000b76:	430b      	orrs	r3, r1
 8000b78:	4917      	ldr	r1, [pc, #92]	; (8000bd8 <HAL_RCC_OscConfig+0x3c0>)
 8000b7a:	400a      	ands	r2, r1
 8000b7c:	4313      	orrs	r3, r2
 8000b7e:	6063      	str	r3, [r4, #4]
        __HAL_RCC_PLL_ENABLE();
 8000b80:	2380      	movs	r3, #128	; 0x80
 8000b82:	6822      	ldr	r2, [r4, #0]
 8000b84:	045b      	lsls	r3, r3, #17
 8000b86:	4313      	orrs	r3, r2
 8000b88:	6023      	str	r3, [r4, #0]
        tickstart = HAL_GetTick();
 8000b8a:	f7ff fe3d 	bl	8000808 <HAL_GetTick>
 8000b8e:	0005      	movs	r5, r0
        while(__HAL_RCC_GET_FLAG(RCC_FLAG_PLLRDY)  == RESET)
 8000b90:	6823      	ldr	r3, [r4, #0]
 8000b92:	4233      	tst	r3, r6
 8000b94:	d000      	beq.n	8000b98 <HAL_RCC_OscConfig+0x380>
 8000b96:	e673      	b.n	8000880 <HAL_RCC_OscConfig+0x68>
          if((HAL_GetTick() - tickstart ) > PLL_TIMEOUT_VALUE)
 8000b98:	f7ff fe36 	bl	8000808 <HAL_GetTick>
 8000b9c:	1b40      	subs	r0, r0, r5
 8000b9e:	2802      	cmp	r0, #2
 8000ba0:	d9f6      	bls.n	8000b90 <HAL_RCC_OscConfig+0x378>
 8000ba2:	e69a      	b.n	80008da <HAL_RCC_OscConfig+0xc2>
          if((HAL_GetTick() - tickstart ) > PLL_TIMEOUT_VALUE)
 8000ba4:	f7ff fe30 	bl	8000808 <HAL_GetTick>
 8000ba8:	1b80      	subs	r0, r0, r6
 8000baa:	2802      	cmp	r0, #2
 8000bac:	d9d5      	bls.n	8000b5a <HAL_RCC_OscConfig+0x342>
 8000bae:	e694      	b.n	80008da <HAL_RCC_OscConfig+0xc2>
        tickstart = HAL_GetTick();
 8000bb0:	f7ff fe2a 	bl	8000808 <HAL_GetTick>
        while(__HAL_RCC_GET_FLAG(RCC_FLAG_PLLRDY)  != RESET)
 8000bb4:	2680      	movs	r6, #128	; 0x80
        tickstart = HAL_GetTick();
 8000bb6:	0005      	movs	r5, r0
        while(__HAL_RCC_GET_FLAG(RCC_FLAG_PLLRDY)  != RESET)
 8000bb8:	04b6      	lsls	r6, r6, #18
 8000bba:	6823      	ldr	r3, [r4, #0]
 8000bbc:	4233      	tst	r3, r6
 8000bbe:	d100      	bne.n	8000bc2 <HAL_RCC_OscConfig+0x3aa>
 8000bc0:	e65e      	b.n	8000880 <HAL_RCC_OscConfig+0x68>
          if((HAL_GetTick() - tickstart ) > PLL_TIMEOUT_VALUE)
 8000bc2:	f7ff fe21 	bl	8000808 <HAL_GetTick>
 8000bc6:	1b40      	subs	r0, r0, r5
 8000bc8:	2802      	cmp	r0, #2
 8000bca:	d9f6      	bls.n	8000bba <HAL_RCC_OscConfig+0x3a2>
 8000bcc:	e685      	b.n	80008da <HAL_RCC_OscConfig+0xc2>
 8000bce:	46c0      	nop			; (mov r8, r8)
 8000bd0:	40021000 	.word	0x40021000
 8000bd4:	feffffff 	.word	0xfeffffff
 8000bd8:	ffc2ffff 	.word	0xffc2ffff

08000bdc <HAL_RCC_ClockConfig>:
  *         You can use @ref HAL_RCC_GetClockConfig() function to know which clock is
  *         currently used as system clock source.
  * @retval HAL status
  */
HAL_StatusTypeDef HAL_RCC_ClockConfig(RCC_ClkInitTypeDef  *RCC_ClkInitStruct, uint32_t FLatency)
{
 8000bdc:	b5f7      	push	{r0, r1, r2, r4, r5, r6, r7, lr}
  /* To correctly read data from FLASH memory, the number of wait states (LATENCY) 
  must be correctly programmed according to the frequency of the CPU clock 
    (HCLK) of the device. */

  /* Increasing the number of wait states because of higher CPU frequency */
  if(FLatency > (FLASH->ACR & FLASH_ACR_LATENCY))
 8000bde:	2201      	movs	r2, #1
 8000be0:	4c3e      	ldr	r4, [pc, #248]	; (8000cdc <HAL_RCC_ClockConfig+0x100>)
{
 8000be2:	0005      	movs	r5, r0
  if(FLatency > (FLASH->ACR & FLASH_ACR_LATENCY))
 8000be4:	6823      	ldr	r3, [r4, #0]
{
 8000be6:	000f      	movs	r7, r1
  if(FLatency > (FLASH->ACR & FLASH_ACR_LATENCY))
 8000be8:	4013      	ands	r3, r2
 8000bea:	428b      	cmp	r3, r1
 8000bec:	d312      	bcc.n	8000c14 <HAL_RCC_ClockConfig+0x38>
      return HAL_ERROR;
    }
  }

  /*-------------------------- HCLK Configuration --------------------------*/
  if(((RCC_ClkInitStruct->ClockType) & RCC_CLOCKTYPE_HCLK) == RCC_CLOCKTYPE_HCLK)
 8000bee:	682a      	ldr	r2, [r5, #0]
 8000bf0:	0793      	lsls	r3, r2, #30
 8000bf2:	d419      	bmi.n	8000c28 <HAL_RCC_ClockConfig+0x4c>
    assert_param(IS_RCC_HCLK(RCC_ClkInitStruct->AHBCLKDivider));
    MODIFY_REG(RCC->CFGR, RCC_CFGR_HPRE, RCC_ClkInitStruct->AHBCLKDivider);
  }

  /*------------------------- SYSCLK Configuration ---------------------------*/ 
  if(((RCC_ClkInitStruct->ClockType) & RCC_CLOCKTYPE_SYSCLK) == RCC_CLOCKTYPE_SYSCLK)
 8000bf4:	07d3      	lsls	r3, r2, #31
 8000bf6:	d41f      	bmi.n	8000c38 <HAL_RCC_ClockConfig+0x5c>
        }
      }
    }      
  }    
  /* Decreasing the number of wait states because of lower CPU frequency */
  if(FLatency < (FLASH->ACR & FLASH_ACR_LATENCY))
 8000bf8:	2301      	movs	r3, #1
 8000bfa:	6822      	ldr	r2, [r4, #0]
 8000bfc:	401a      	ands	r2, r3
 8000bfe:	42ba      	cmp	r2, r7
 8000c00:	d85d      	bhi.n	8000cbe <HAL_RCC_ClockConfig+0xe2>
      return HAL_ERROR;
    }
  }    

  /*-------------------------- PCLK1 Configuration ---------------------------*/ 
  if(((RCC_ClkInitStruct->ClockType) & RCC_CLOCKTYPE_PCLK1) == RCC_CLOCKTYPE_PCLK1)
 8000c02:	682b      	ldr	r3, [r5, #0]
 8000c04:	075b      	lsls	r3, r3, #29
 8000c06:	d461      	bmi.n	8000ccc <HAL_RCC_ClockConfig+0xf0>
    MODIFY_REG(RCC->CFGR, RCC_CFGR_PPRE, RCC_ClkInitStruct->APB1CLKDivider);
  }
  
  /* Update the SystemCoreClock global variable */
  //SystemCoreClock = HAL_RCC_GetSysClockFreq() >> AHBPrescTable[(RCC->CFGR & RCC_CFGR_HPRE)>> RCC_CFGR_HPRE_BITNUMBER];
  SystemCoreClock = 7372800;
 8000c08:	22e1      	movs	r2, #225	; 0xe1
 8000c0a:	4b35      	ldr	r3, [pc, #212]	; (8000ce0 <HAL_RCC_ClockConfig+0x104>)
 8000c0c:	03d2      	lsls	r2, r2, #15
  
  /* Configure the source of time base considering new system clocks settings*/
  //HAL_InitTick (TICK_INT_PRIORITY);
  
  return HAL_OK;
 8000c0e:	2000      	movs	r0, #0
  SystemCoreClock = 7372800;
 8000c10:	601a      	str	r2, [r3, #0]
  return HAL_OK;
 8000c12:	e008      	b.n	8000c26 <HAL_RCC_ClockConfig+0x4a>
    __HAL_FLASH_SET_LATENCY(FLatency);
 8000c14:	6823      	ldr	r3, [r4, #0]
 8000c16:	4393      	bics	r3, r2
 8000c18:	430b      	orrs	r3, r1
 8000c1a:	6023      	str	r3, [r4, #0]
    if((FLASH->ACR & FLASH_ACR_LATENCY) != FLatency)
 8000c1c:	6823      	ldr	r3, [r4, #0]
 8000c1e:	4013      	ands	r3, r2
 8000c20:	428b      	cmp	r3, r1
 8000c22:	d0e4      	beq.n	8000bee <HAL_RCC_ClockConfig+0x12>
      return HAL_ERROR;
 8000c24:	2001      	movs	r0, #1
}
 8000c26:	bdfe      	pop	{r1, r2, r3, r4, r5, r6, r7, pc}
    MODIFY_REG(RCC->CFGR, RCC_CFGR_HPRE, RCC_ClkInitStruct->AHBCLKDivider);
 8000c28:	20f0      	movs	r0, #240	; 0xf0
 8000c2a:	492e      	ldr	r1, [pc, #184]	; (8000ce4 <HAL_RCC_ClockConfig+0x108>)
 8000c2c:	684b      	ldr	r3, [r1, #4]
 8000c2e:	4383      	bics	r3, r0
 8000c30:	68a8      	ldr	r0, [r5, #8]
 8000c32:	4303      	orrs	r3, r0
 8000c34:	604b      	str	r3, [r1, #4]
 8000c36:	e7dd      	b.n	8000bf4 <HAL_RCC_ClockConfig+0x18>
    if(RCC_ClkInitStruct->SYSCLKSource == RCC_SYSCLKSOURCE_HSE)
 8000c38:	4e2a      	ldr	r6, [pc, #168]	; (8000ce4 <HAL_RCC_ClockConfig+0x108>)
 8000c3a:	686a      	ldr	r2, [r5, #4]
      if(__HAL_RCC_GET_FLAG(RCC_FLAG_HSERDY) == RESET)
 8000c3c:	6833      	ldr	r3, [r6, #0]
    if(RCC_ClkInitStruct->SYSCLKSource == RCC_SYSCLKSOURCE_HSE)
 8000c3e:	2a01      	cmp	r2, #1
 8000c40:	d11a      	bne.n	8000c78 <HAL_RCC_ClockConfig+0x9c>
      if(__HAL_RCC_GET_FLAG(RCC_FLAG_HSERDY) == RESET)
 8000c42:	039b      	lsls	r3, r3, #14
 8000c44:	d5ee      	bpl.n	8000c24 <HAL_RCC_ClockConfig+0x48>
    __HAL_RCC_SYSCLK_CONFIG(RCC_ClkInitStruct->SYSCLKSource);
 8000c46:	2103      	movs	r1, #3
 8000c48:	6873      	ldr	r3, [r6, #4]
 8000c4a:	438b      	bics	r3, r1
 8000c4c:	4313      	orrs	r3, r2
 8000c4e:	6073      	str	r3, [r6, #4]
    tickstart = HAL_GetTick();
 8000c50:	f7ff fdda 	bl	8000808 <HAL_GetTick>
    if(RCC_ClkInitStruct->SYSCLKSource == RCC_SYSCLKSOURCE_HSE)
 8000c54:	686b      	ldr	r3, [r5, #4]
    tickstart = HAL_GetTick();
 8000c56:	9001      	str	r0, [sp, #4]
    if(RCC_ClkInitStruct->SYSCLKSource == RCC_SYSCLKSOURCE_HSE)
 8000c58:	2b01      	cmp	r3, #1
 8000c5a:	d115      	bne.n	8000c88 <HAL_RCC_ClockConfig+0xac>
      while (__HAL_RCC_GET_SYSCLK_SOURCE() != RCC_SYSCLKSOURCE_STATUS_HSE)
 8000c5c:	220c      	movs	r2, #12
 8000c5e:	6873      	ldr	r3, [r6, #4]
 8000c60:	4013      	ands	r3, r2
 8000c62:	2b04      	cmp	r3, #4
 8000c64:	d0c8      	beq.n	8000bf8 <HAL_RCC_ClockConfig+0x1c>
        if((HAL_GetTick() - tickstart ) > CLOCKSWITCH_TIMEOUT_VALUE)
 8000c66:	f7ff fdcf 	bl	8000808 <HAL_GetTick>
 8000c6a:	9b01      	ldr	r3, [sp, #4]
 8000c6c:	1ac0      	subs	r0, r0, r3
 8000c6e:	4b1e      	ldr	r3, [pc, #120]	; (8000ce8 <HAL_RCC_ClockConfig+0x10c>)
 8000c70:	4298      	cmp	r0, r3
 8000c72:	d9f3      	bls.n	8000c5c <HAL_RCC_ClockConfig+0x80>
          return HAL_TIMEOUT;
 8000c74:	2003      	movs	r0, #3
 8000c76:	e7d6      	b.n	8000c26 <HAL_RCC_ClockConfig+0x4a>
    else if(RCC_ClkInitStruct->SYSCLKSource == RCC_SYSCLKSOURCE_PLLCLK)
 8000c78:	2a02      	cmp	r2, #2
 8000c7a:	d102      	bne.n	8000c82 <HAL_RCC_ClockConfig+0xa6>
      if(__HAL_RCC_GET_FLAG(RCC_FLAG_PLLRDY) == RESET)
 8000c7c:	019b      	lsls	r3, r3, #6
 8000c7e:	d4e2      	bmi.n	8000c46 <HAL_RCC_ClockConfig+0x6a>
 8000c80:	e7d0      	b.n	8000c24 <HAL_RCC_ClockConfig+0x48>
      if(__HAL_RCC_GET_FLAG(RCC_FLAG_HSIRDY) == RESET)
 8000c82:	079b      	lsls	r3, r3, #30
 8000c84:	d4df      	bmi.n	8000c46 <HAL_RCC_ClockConfig+0x6a>
 8000c86:	e7cd      	b.n	8000c24 <HAL_RCC_ClockConfig+0x48>
    else if(RCC_ClkInitStruct->SYSCLKSource == RCC_SYSCLKSOURCE_PLLCLK)
 8000c88:	2b02      	cmp	r3, #2
 8000c8a:	d012      	beq.n	8000cb2 <HAL_RCC_ClockConfig+0xd6>
      while (__HAL_RCC_GET_SYSCLK_SOURCE() != RCC_SYSCLKSOURCE_STATUS_HSI)
 8000c8c:	220c      	movs	r2, #12
 8000c8e:	6873      	ldr	r3, [r6, #4]
 8000c90:	4213      	tst	r3, r2
 8000c92:	d0b1      	beq.n	8000bf8 <HAL_RCC_ClockConfig+0x1c>
        if((HAL_GetTick() - tickstart ) > CLOCKSWITCH_TIMEOUT_VALUE)
 8000c94:	f7ff fdb8 	bl	8000808 <HAL_GetTick>
 8000c98:	9b01      	ldr	r3, [sp, #4]
 8000c9a:	1ac0      	subs	r0, r0, r3
 8000c9c:	4b12      	ldr	r3, [pc, #72]	; (8000ce8 <HAL_RCC_ClockConfig+0x10c>)
 8000c9e:	4298      	cmp	r0, r3
 8000ca0:	d9f4      	bls.n	8000c8c <HAL_RCC_ClockConfig+0xb0>
 8000ca2:	e7e7      	b.n	8000c74 <HAL_RCC_ClockConfig+0x98>
        if((HAL_GetTick() - tickstart ) > CLOCKSWITCH_TIMEOUT_VALUE)
 8000ca4:	f7ff fdb0 	bl	8000808 <HAL_GetTick>
 8000ca8:	9b01      	ldr	r3, [sp, #4]
 8000caa:	1ac0      	subs	r0, r0, r3
 8000cac:	4b0e      	ldr	r3, [pc, #56]	; (8000ce8 <HAL_RCC_ClockConfig+0x10c>)
 8000cae:	4298      	cmp	r0, r3
 8000cb0:	d8e0      	bhi.n	8000c74 <HAL_RCC_ClockConfig+0x98>
      while (__HAL_RCC_GET_SYSCLK_SOURCE() != RCC_SYSCLKSOURCE_STATUS_PLLCLK)
 8000cb2:	220c      	movs	r2, #12
 8000cb4:	6873      	ldr	r3, [r6, #4]
 8000cb6:	4013      	ands	r3, r2
 8000cb8:	2b08      	cmp	r3, #8
 8000cba:	d1f3      	bne.n	8000ca4 <HAL_RCC_ClockConfig+0xc8>
 8000cbc:	e79c      	b.n	8000bf8 <HAL_RCC_ClockConfig+0x1c>
    __HAL_FLASH_SET_LATENCY(FLatency);
 8000cbe:	6822      	ldr	r2, [r4, #0]
 8000cc0:	439a      	bics	r2, r3
 8000cc2:	6022      	str	r2, [r4, #0]
    if((FLASH->ACR & FLASH_ACR_LATENCY) != FLatency)
 8000cc4:	6822      	ldr	r2, [r4, #0]
 8000cc6:	421a      	tst	r2, r3
 8000cc8:	d09b      	beq.n	8000c02 <HAL_RCC_ClockConfig+0x26>
 8000cca:	e7ab      	b.n	8000c24 <HAL_RCC_ClockConfig+0x48>
    MODIFY_REG(RCC->CFGR, RCC_CFGR_PPRE, RCC_ClkInitStruct->APB1CLKDivider);
 8000ccc:	4a05      	ldr	r2, [pc, #20]	; (8000ce4 <HAL_RCC_ClockConfig+0x108>)
 8000cce:	4907      	ldr	r1, [pc, #28]	; (8000cec <HAL_RCC_ClockConfig+0x110>)
 8000cd0:	6853      	ldr	r3, [r2, #4]
 8000cd2:	400b      	ands	r3, r1
 8000cd4:	68e9      	ldr	r1, [r5, #12]
 8000cd6:	430b      	orrs	r3, r1
 8000cd8:	6053      	str	r3, [r2, #4]
 8000cda:	e795      	b.n	8000c08 <HAL_RCC_ClockConfig+0x2c>
 8000cdc:	40022000 	.word	0x40022000
 8000ce0:	20000004 	.word	0x20000004
 8000ce4:	40021000 	.word	0x40021000
 8000ce8:	00001388 	.word	0x00001388
 8000cec:	fffff8ff 	.word	0xfffff8ff

08000cf0 <HAL_GPIO_Init>:
  *         the configuration information for the specified GPIO peripheral.
  * @retval None
  */
void HAL_GPIO_Init(GPIO_TypeDef  *GPIOx, GPIO_InitTypeDef *GPIO_Init)
{ 
  uint32_t position = 0x00U;
 8000cf0:	2300      	movs	r3, #0
{ 
 8000cf2:	b5f0      	push	{r4, r5, r6, r7, lr}
 8000cf4:	b087      	sub	sp, #28
  assert_param(IS_GPIO_PIN(GPIO_Init->Pin));
  assert_param(IS_GPIO_MODE(GPIO_Init->Mode));
  assert_param(IS_GPIO_PULL(GPIO_Init->Pull)); 

  /* Configure the port pins */
  while (((GPIO_Init->Pin) >> position) != RESET)
 8000cf6:	680a      	ldr	r2, [r1, #0]
 8000cf8:	0014      	movs	r4, r2
 8000cfa:	40dc      	lsrs	r4, r3
 8000cfc:	d101      	bne.n	8000d02 <HAL_GPIO_Init+0x12>
      }
    }
    
    position++;
  } 
}
 8000cfe:	b007      	add	sp, #28
 8000d00:	bdf0      	pop	{r4, r5, r6, r7, pc}
    iocurrent = (GPIO_Init->Pin) & (1U << position);
 8000d02:	2601      	movs	r6, #1
 8000d04:	0014      	movs	r4, r2
 8000d06:	409e      	lsls	r6, r3
 8000d08:	4034      	ands	r4, r6
 8000d0a:	9402      	str	r4, [sp, #8]
    if(iocurrent)
 8000d0c:	4232      	tst	r2, r6
 8000d0e:	d100      	bne.n	8000d12 <HAL_GPIO_Init+0x22>
 8000d10:	e092      	b.n	8000e38 <HAL_GPIO_Init+0x148>
      if((GPIO_Init->Mode == GPIO_MODE_AF_PP) || (GPIO_Init->Mode == GPIO_MODE_AF_OD)) 
 8000d12:	684a      	ldr	r2, [r1, #4]
 8000d14:	0015      	movs	r5, r2
 8000d16:	9201      	str	r2, [sp, #4]
 8000d18:	2210      	movs	r2, #16
 8000d1a:	4395      	bics	r5, r2
 8000d1c:	9503      	str	r5, [sp, #12]
 8000d1e:	2d02      	cmp	r5, #2
 8000d20:	d10d      	bne.n	8000d3e <HAL_GPIO_Init+0x4e>
        CLEAR_BIT(temp, 0xFU << ((uint32_t)(position & 0x07U) * 4U)) ;      
 8000d22:	2407      	movs	r4, #7
 8000d24:	250f      	movs	r5, #15
 8000d26:	401c      	ands	r4, r3
 8000d28:	00a4      	lsls	r4, r4, #2
 8000d2a:	40a5      	lsls	r5, r4
        temp = GPIOx->AFR[position >> 3];
 8000d2c:	08da      	lsrs	r2, r3, #3
 8000d2e:	0092      	lsls	r2, r2, #2
 8000d30:	1882      	adds	r2, r0, r2
 8000d32:	6a17      	ldr	r7, [r2, #32]
        CLEAR_BIT(temp, 0xFU << ((uint32_t)(position & 0x07U) * 4U)) ;      
 8000d34:	43af      	bics	r7, r5
        SET_BIT(temp, (uint32_t)(GPIO_Init->Alternate) << (((uint32_t)position & 0x07U) * 4U));       
 8000d36:	690d      	ldr	r5, [r1, #16]
 8000d38:	40a5      	lsls	r5, r4
 8000d3a:	432f      	orrs	r7, r5
        GPIOx->AFR[position >> 3U] = temp;
 8000d3c:	6217      	str	r7, [r2, #32]
      CLEAR_BIT(temp, GPIO_MODER_MODER0 << (position * 2U));   
 8000d3e:	2203      	movs	r2, #3
 8000d40:	005c      	lsls	r4, r3, #1
 8000d42:	40a2      	lsls	r2, r4
 8000d44:	43d5      	mvns	r5, r2
 8000d46:	46ac      	mov	ip, r5
      SET_BIT(temp, (GPIO_Init->Mode & GPIO_MODE) << (position * 2U));
 8000d48:	2503      	movs	r5, #3
      temp = GPIOx->MODER;
 8000d4a:	6807      	ldr	r7, [r0, #0]
      CLEAR_BIT(temp, GPIO_MODER_MODER0 << (position * 2U));   
 8000d4c:	4397      	bics	r7, r2
      SET_BIT(temp, (GPIO_Init->Mode & GPIO_MODE) << (position * 2U));
 8000d4e:	9a01      	ldr	r2, [sp, #4]
 8000d50:	402a      	ands	r2, r5
 8000d52:	40a2      	lsls	r2, r4
      if ((GPIO_Init->Mode == GPIO_MODE_OUTPUT_PP) || (GPIO_Init->Mode == GPIO_MODE_AF_PP) ||
 8000d54:	9d03      	ldr	r5, [sp, #12]
      SET_BIT(temp, (GPIO_Init->Mode & GPIO_MODE) << (position * 2U));
 8000d56:	433a      	orrs	r2, r7
      if ((GPIO_Init->Mode == GPIO_MODE_OUTPUT_PP) || (GPIO_Init->Mode == GPIO_MODE_AF_PP) ||
 8000d58:	3d01      	subs	r5, #1
      GPIOx->MODER = temp;
 8000d5a:	6002      	str	r2, [r0, #0]
      if ((GPIO_Init->Mode == GPIO_MODE_OUTPUT_PP) || (GPIO_Init->Mode == GPIO_MODE_AF_PP) ||
 8000d5c:	2d01      	cmp	r5, #1
 8000d5e:	d80f      	bhi.n	8000d80 <HAL_GPIO_Init+0x90>
        CLEAR_BIT(temp, GPIO_OSPEEDER_OSPEEDR0 << (position * 2U));
 8000d60:	4662      	mov	r2, ip
        temp = GPIOx->OSPEEDR; 
 8000d62:	6885      	ldr	r5, [r0, #8]
        CLEAR_BIT(temp, GPIO_OSPEEDER_OSPEEDR0 << (position * 2U));
 8000d64:	4015      	ands	r5, r2
        SET_BIT(temp, GPIO_Init->Speed << (position * 2U));
 8000d66:	68ca      	ldr	r2, [r1, #12]
 8000d68:	40a2      	lsls	r2, r4
 8000d6a:	432a      	orrs	r2, r5
        GPIOx->OSPEEDR = temp;
 8000d6c:	6082      	str	r2, [r0, #8]
        temp = GPIOx->OTYPER;
 8000d6e:	6845      	ldr	r5, [r0, #4]
        SET_BIT(temp, ((GPIO_Init->Mode & GPIO_OUTPUT_TYPE) >> 4U) << position);
 8000d70:	9a01      	ldr	r2, [sp, #4]
        CLEAR_BIT(temp, GPIO_OTYPER_OT_0 << position) ;
 8000d72:	43b5      	bics	r5, r6
        SET_BIT(temp, ((GPIO_Init->Mode & GPIO_OUTPUT_TYPE) >> 4U) << position);
 8000d74:	2601      	movs	r6, #1
 8000d76:	0912      	lsrs	r2, r2, #4
 8000d78:	4032      	ands	r2, r6
 8000d7a:	409a      	lsls	r2, r3
 8000d7c:	432a      	orrs	r2, r5
        GPIOx->OTYPER = temp;
 8000d7e:	6042      	str	r2, [r0, #4]
      CLEAR_BIT(temp, GPIO_PUPDR_PUPDR0 << (position * 2U));
 8000d80:	4665      	mov	r5, ip
      temp = GPIOx->PUPDR;
 8000d82:	68c2      	ldr	r2, [r0, #12]
      CLEAR_BIT(temp, GPIO_PUPDR_PUPDR0 << (position * 2U));
 8000d84:	402a      	ands	r2, r5
      SET_BIT(temp, (GPIO_Init->Pull) << (position * 2U));
 8000d86:	688d      	ldr	r5, [r1, #8]
 8000d88:	40a5      	lsls	r5, r4
      if((GPIO_Init->Mode & EXTI_MODE) == EXTI_MODE) 
 8000d8a:	2480      	movs	r4, #128	; 0x80
      SET_BIT(temp, (GPIO_Init->Pull) << (position * 2U));
 8000d8c:	432a      	orrs	r2, r5
      GPIOx->PUPDR = temp;
 8000d8e:	60c2      	str	r2, [r0, #12]
      if((GPIO_Init->Mode & EXTI_MODE) == EXTI_MODE) 
 8000d90:	9a01      	ldr	r2, [sp, #4]
 8000d92:	0564      	lsls	r4, r4, #21
 8000d94:	4222      	tst	r2, r4
 8000d96:	d04f      	beq.n	8000e38 <HAL_GPIO_Init+0x148>
        __HAL_RCC_SYSCFG_CLK_ENABLE();
 8000d98:	2501      	movs	r5, #1
        CLEAR_BIT(temp, (0x0FU) << (4U * (position & 0x03U)));
 8000d9a:	270f      	movs	r7, #15
        __HAL_RCC_SYSCFG_CLK_ENABLE();
 8000d9c:	4a27      	ldr	r2, [pc, #156]	; (8000e3c <HAL_GPIO_Init+0x14c>)
 8000d9e:	6994      	ldr	r4, [r2, #24]
 8000da0:	432c      	orrs	r4, r5
 8000da2:	6194      	str	r4, [r2, #24]
 8000da4:	6992      	ldr	r2, [r2, #24]
        temp = SYSCFG->EXTICR[position >> 2];
 8000da6:	089c      	lsrs	r4, r3, #2
        __HAL_RCC_SYSCFG_CLK_ENABLE();
 8000da8:	402a      	ands	r2, r5
        CLEAR_BIT(temp, (0x0FU) << (4U * (position & 0x03U)));
 8000daa:	3502      	adds	r5, #2
 8000dac:	401d      	ands	r5, r3
 8000dae:	00ad      	lsls	r5, r5, #2
 8000db0:	40af      	lsls	r7, r5
        __HAL_RCC_SYSCFG_CLK_ENABLE();
 8000db2:	9205      	str	r2, [sp, #20]
 8000db4:	9a05      	ldr	r2, [sp, #20]
        temp = SYSCFG->EXTICR[position >> 2];
 8000db6:	4a22      	ldr	r2, [pc, #136]	; (8000e40 <HAL_GPIO_Init+0x150>)
 8000db8:	00a4      	lsls	r4, r4, #2
 8000dba:	18a4      	adds	r4, r4, r2
 8000dbc:	68a6      	ldr	r6, [r4, #8]
        SET_BIT(temp, (GPIO_GET_INDEX(GPIOx)) << (4U * (position & 0x03U)));
 8000dbe:	2200      	movs	r2, #0
        CLEAR_BIT(temp, (0x0FU) << (4U * (position & 0x03U)));
 8000dc0:	43be      	bics	r6, r7
        SET_BIT(temp, (GPIO_GET_INDEX(GPIOx)) << (4U * (position & 0x03U)));
 8000dc2:	2790      	movs	r7, #144	; 0x90
 8000dc4:	05ff      	lsls	r7, r7, #23
 8000dc6:	42b8      	cmp	r0, r7
 8000dc8:	d00c      	beq.n	8000de4 <HAL_GPIO_Init+0xf4>
 8000dca:	4f1e      	ldr	r7, [pc, #120]	; (8000e44 <HAL_GPIO_Init+0x154>)
 8000dcc:	3201      	adds	r2, #1
 8000dce:	42b8      	cmp	r0, r7
 8000dd0:	d008      	beq.n	8000de4 <HAL_GPIO_Init+0xf4>
 8000dd2:	4f1d      	ldr	r7, [pc, #116]	; (8000e48 <HAL_GPIO_Init+0x158>)
 8000dd4:	3201      	adds	r2, #1
 8000dd6:	42b8      	cmp	r0, r7
 8000dd8:	d004      	beq.n	8000de4 <HAL_GPIO_Init+0xf4>
 8000dda:	4f1c      	ldr	r7, [pc, #112]	; (8000e4c <HAL_GPIO_Init+0x15c>)
 8000ddc:	3201      	adds	r2, #1
 8000dde:	42b8      	cmp	r0, r7
 8000de0:	d000      	beq.n	8000de4 <HAL_GPIO_Init+0xf4>
 8000de2:	3202      	adds	r2, #2
 8000de4:	40aa      	lsls	r2, r5
 8000de6:	4332      	orrs	r2, r6
        SYSCFG->EXTICR[position >> 2] = temp;
 8000de8:	60a2      	str	r2, [r4, #8]
        temp = EXTI->IMR;
 8000dea:	4a19      	ldr	r2, [pc, #100]	; (8000e50 <HAL_GPIO_Init+0x160>)
        CLEAR_BIT(temp, (uint32_t)iocurrent);
 8000dec:	9c02      	ldr	r4, [sp, #8]
        temp = EXTI->IMR;
 8000dee:	6816      	ldr	r6, [r2, #0]
          SET_BIT(temp, iocurrent); 
 8000df0:	9d02      	ldr	r5, [sp, #8]
        if((GPIO_Init->Mode & GPIO_MODE_IT) == GPIO_MODE_IT)
 8000df2:	9f01      	ldr	r7, [sp, #4]
        CLEAR_BIT(temp, (uint32_t)iocurrent);
 8000df4:	43e4      	mvns	r4, r4
          SET_BIT(temp, iocurrent); 
 8000df6:	4335      	orrs	r5, r6
        if((GPIO_Init->Mode & GPIO_MODE_IT) == GPIO_MODE_IT)
 8000df8:	03ff      	lsls	r7, r7, #15
 8000dfa:	d401      	bmi.n	8000e00 <HAL_GPIO_Init+0x110>
        CLEAR_BIT(temp, (uint32_t)iocurrent);
 8000dfc:	0035      	movs	r5, r6
 8000dfe:	4025      	ands	r5, r4
        EXTI->IMR = temp;
 8000e00:	6015      	str	r5, [r2, #0]
        temp = EXTI->EMR;
 8000e02:	6856      	ldr	r6, [r2, #4]
          SET_BIT(temp, iocurrent); 
 8000e04:	9d02      	ldr	r5, [sp, #8]
        if((GPIO_Init->Mode & GPIO_MODE_EVT) == GPIO_MODE_EVT)
 8000e06:	9f01      	ldr	r7, [sp, #4]
          SET_BIT(temp, iocurrent); 
 8000e08:	4335      	orrs	r5, r6
        if((GPIO_Init->Mode & GPIO_MODE_EVT) == GPIO_MODE_EVT)
 8000e0a:	03bf      	lsls	r7, r7, #14
 8000e0c:	d401      	bmi.n	8000e12 <HAL_GPIO_Init+0x122>
        CLEAR_BIT(temp, (uint32_t)iocurrent);      
 8000e0e:	0035      	movs	r5, r6
 8000e10:	4025      	ands	r5, r4
        EXTI->EMR = temp;
 8000e12:	6055      	str	r5, [r2, #4]
        temp = EXTI->RTSR;
 8000e14:	6896      	ldr	r6, [r2, #8]
          SET_BIT(temp, iocurrent); 
 8000e16:	9d02      	ldr	r5, [sp, #8]
        if((GPIO_Init->Mode & RISING_EDGE) == RISING_EDGE)
 8000e18:	9f01      	ldr	r7, [sp, #4]
          SET_BIT(temp, iocurrent); 
 8000e1a:	4335      	orrs	r5, r6
        if((GPIO_Init->Mode & RISING_EDGE) == RISING_EDGE)
 8000e1c:	02ff      	lsls	r7, r7, #11
 8000e1e:	d401      	bmi.n	8000e24 <HAL_GPIO_Init+0x134>
        CLEAR_BIT(temp, (uint32_t)iocurrent); 
 8000e20:	0035      	movs	r5, r6
 8000e22:	4025      	ands	r5, r4
        EXTI->RTSR = temp;
 8000e24:	6095      	str	r5, [r2, #8]
        temp = EXTI->FTSR;
 8000e26:	68d5      	ldr	r5, [r2, #12]
          SET_BIT(temp, iocurrent); 
 8000e28:	9e02      	ldr	r6, [sp, #8]
        if((GPIO_Init->Mode & FALLING_EDGE) == FALLING_EDGE)
 8000e2a:	9f01      	ldr	r7, [sp, #4]
          SET_BIT(temp, iocurrent); 
 8000e2c:	432e      	orrs	r6, r5
        if((GPIO_Init->Mode & FALLING_EDGE) == FALLING_EDGE)
 8000e2e:	02bf      	lsls	r7, r7, #10
 8000e30:	d401      	bmi.n	8000e36 <HAL_GPIO_Init+0x146>
        CLEAR_BIT(temp, (uint32_t)iocurrent); 
 8000e32:	4025      	ands	r5, r4
 8000e34:	002e      	movs	r6, r5
        EXTI->FTSR = temp;
 8000e36:	60d6      	str	r6, [r2, #12]
    position++;
 8000e38:	3301      	adds	r3, #1
 8000e3a:	e75c      	b.n	8000cf6 <HAL_GPIO_Init+0x6>
 8000e3c:	40021000 	.word	0x40021000
 8000e40:	40010000 	.word	0x40010000
 8000e44:	48000400 	.word	0x48000400
 8000e48:	48000800 	.word	0x48000800
 8000e4c:	48000c00 	.word	0x48000c00
 8000e50:	40010400 	.word	0x40010400

08000e54 <HAL_GPIO_WritePin>:
{
  /* Check the parameters */
  assert_param(IS_GPIO_PIN(GPIO_Pin));
  assert_param(IS_GPIO_PIN_ACTION(PinState));

  if (PinState != GPIO_PIN_RESET)
 8000e54:	2a00      	cmp	r2, #0
 8000e56:	d001      	beq.n	8000e5c <HAL_GPIO_WritePin+0x8>
  {
    GPIOx->BSRR = (uint32_t)GPIO_Pin;
 8000e58:	6181      	str	r1, [r0, #24]
  }
  else
  {
    GPIOx->BRR = (uint32_t)GPIO_Pin;
  }
}										  
 8000e5a:	4770      	bx	lr
    GPIOx->BRR = (uint32_t)GPIO_Pin;
 8000e5c:	6281      	str	r1, [r0, #40]	; 0x28
}										  
 8000e5e:	e7fc      	b.n	8000e5a <HAL_GPIO_WritePin+0x6>

08000e60 <UART_WaitOnFlagUntilTimeout>:
  * @param  Tickstart Tick start value
  * @param  Timeout Timeout duration
  * @retval HAL status
  */
HAL_StatusTypeDef UART_WaitOnFlagUntilTimeout(UART_HandleTypeDef *huart, uint32_t Flag, FlagStatus Status, uint32_t Tickstart, uint32_t Timeout)
{
 8000e60:	b5f8      	push	{r3, r4, r5, r6, r7, lr}
 8000e62:	0004      	movs	r4, r0
 8000e64:	000d      	movs	r5, r1
 8000e66:	0017      	movs	r7, r2
 8000e68:	001e      	movs	r6, r3
  /* Wait until flag is set */
  while((__HAL_UART_GET_FLAG(huart, Flag) ? SET : RESET) == Status)
 8000e6a:	6822      	ldr	r2, [r4, #0]
 8000e6c:	69d3      	ldr	r3, [r2, #28]
 8000e6e:	402b      	ands	r3, r5
 8000e70:	1b5b      	subs	r3, r3, r5
 8000e72:	4259      	negs	r1, r3
 8000e74:	414b      	adcs	r3, r1
 8000e76:	42bb      	cmp	r3, r7
 8000e78:	d001      	beq.n	8000e7e <UART_WaitOnFlagUntilTimeout+0x1e>
        __HAL_UNLOCK(huart);
        return HAL_TIMEOUT;
      }
    }
  }
  return HAL_OK;
 8000e7a:	2000      	movs	r0, #0
 8000e7c:	e018      	b.n	8000eb0 <UART_WaitOnFlagUntilTimeout+0x50>
    if(Timeout != HAL_MAX_DELAY)
 8000e7e:	9b06      	ldr	r3, [sp, #24]
 8000e80:	3301      	adds	r3, #1
 8000e82:	d0f3      	beq.n	8000e6c <UART_WaitOnFlagUntilTimeout+0xc>
      if((Timeout == 0U) || ((HAL_GetTick()-Tickstart) > Timeout))
 8000e84:	9b06      	ldr	r3, [sp, #24]
 8000e86:	2b00      	cmp	r3, #0
 8000e88:	d113      	bne.n	8000eb2 <UART_WaitOnFlagUntilTimeout+0x52>
        CLEAR_BIT(huart->Instance->CR1, (USART_CR1_RXNEIE | USART_CR1_PEIE | USART_CR1_TXEIE));
 8000e8a:	6823      	ldr	r3, [r4, #0]
 8000e8c:	490c      	ldr	r1, [pc, #48]	; (8000ec0 <UART_WaitOnFlagUntilTimeout+0x60>)
 8000e8e:	681a      	ldr	r2, [r3, #0]
        __HAL_UNLOCK(huart);
 8000e90:	2003      	movs	r0, #3
        CLEAR_BIT(huart->Instance->CR1, (USART_CR1_RXNEIE | USART_CR1_PEIE | USART_CR1_TXEIE));
 8000e92:	400a      	ands	r2, r1
 8000e94:	601a      	str	r2, [r3, #0]
        CLEAR_BIT(huart->Instance->CR3, USART_CR3_EIE);
 8000e96:	689a      	ldr	r2, [r3, #8]
 8000e98:	31a3      	adds	r1, #163	; 0xa3
 8000e9a:	31ff      	adds	r1, #255	; 0xff
 8000e9c:	438a      	bics	r2, r1
 8000e9e:	609a      	str	r2, [r3, #8]
        huart->gState  = HAL_UART_STATE_READY;
 8000ea0:	0022      	movs	r2, r4
 8000ea2:	2320      	movs	r3, #32
 8000ea4:	3269      	adds	r2, #105	; 0x69
 8000ea6:	7013      	strb	r3, [r2, #0]
        huart->RxState = HAL_UART_STATE_READY;
 8000ea8:	7053      	strb	r3, [r2, #1]
        __HAL_UNLOCK(huart);
 8000eaa:	2300      	movs	r3, #0
 8000eac:	3468      	adds	r4, #104	; 0x68
 8000eae:	7023      	strb	r3, [r4, #0]
}
 8000eb0:	bdf8      	pop	{r3, r4, r5, r6, r7, pc}
      if((Timeout == 0U) || ((HAL_GetTick()-Tickstart) > Timeout))
 8000eb2:	f7ff fca9 	bl	8000808 <HAL_GetTick>
 8000eb6:	9b06      	ldr	r3, [sp, #24]
 8000eb8:	1b80      	subs	r0, r0, r6
 8000eba:	4298      	cmp	r0, r3
 8000ebc:	d9d5      	bls.n	8000e6a <UART_WaitOnFlagUntilTimeout+0xa>
 8000ebe:	e7e4      	b.n	8000e8a <UART_WaitOnFlagUntilTimeout+0x2a>
 8000ec0:	fffffe5f 	.word	0xfffffe5f

08000ec4 <UART_SetConfig>:

  return HAL_OK;
}

HAL_StatusTypeDef UART_SetConfig(UART_HandleTypeDef *huart)
{
 8000ec4:	0003      	movs	r3, r0
 8000ec6:	b570      	push	{r4, r5, r6, lr}
   *  the UART Word Length, Parity, Mode and oversampling:
   *  set the M bits according to huart->Init.WordLength value
   *  set PCE and PS bits according to huart->Init.Parity value
   *  set TE and RE bits according to huart->Init.Mode value
   *  set OVER8 bit according to huart->Init.OverSampling value */
  tmpreg = (uint32_t)huart->Init.WordLength | huart->Init.Parity | huart->Init.Mode | huart->Init.OverSampling ;
 8000ec8:	689a      	ldr	r2, [r3, #8]
 8000eca:	691d      	ldr	r5, [r3, #16]
  MODIFY_REG(huart->Instance->CR1, UART_CR1_FIELDS, tmpreg);
 8000ecc:	6804      	ldr	r4, [r0, #0]
  tmpreg = (uint32_t)huart->Init.WordLength | huart->Init.Parity | huart->Init.Mode | huart->Init.OverSampling ;
 8000ece:	432a      	orrs	r2, r5
 8000ed0:	695d      	ldr	r5, [r3, #20]
 8000ed2:	69c1      	ldr	r1, [r0, #28]
 8000ed4:	432a      	orrs	r2, r5
  MODIFY_REG(huart->Instance->CR1, UART_CR1_FIELDS, tmpreg);
 8000ed6:	6820      	ldr	r0, [r4, #0]
 8000ed8:	4d33      	ldr	r5, [pc, #204]	; (8000fa8 <UART_SetConfig+0xe4>)
  tmpreg = (uint32_t)huart->Init.WordLength | huart->Init.Parity | huart->Init.Mode | huart->Init.OverSampling ;
 8000eda:	430a      	orrs	r2, r1
  MODIFY_REG(huart->Instance->CR1, UART_CR1_FIELDS, tmpreg);
 8000edc:	4028      	ands	r0, r5
 8000ede:	4302      	orrs	r2, r0
 8000ee0:	6022      	str	r2, [r4, #0]

  /*-------------------------- USART CR2 Configuration -----------------------*/
  /* Configure the UART Stop Bits: Set STOP[13:12] bits according
   * to huart->Init.StopBits value */
  MODIFY_REG(huart->Instance->CR2, USART_CR2_STOP, huart->Init.StopBits);
 8000ee2:	6862      	ldr	r2, [r4, #4]
 8000ee4:	4831      	ldr	r0, [pc, #196]	; (8000fac <UART_SetConfig+0xe8>)
  /* Configure
   * - UART HardWare Flow Control: set CTSE and RTSE bits according
   *   to huart->Init.HwFlowCtl value
   * - one-bit sampling method versus three samples' majority rule according
   *   to huart->Init.OneBitSampling */
  tmpreg = (uint32_t)huart->Init.HwFlowCtl | huart->Init.OneBitSampling ;
 8000ee6:	6a1d      	ldr	r5, [r3, #32]
  MODIFY_REG(huart->Instance->CR2, USART_CR2_STOP, huart->Init.StopBits);
 8000ee8:	4002      	ands	r2, r0
 8000eea:	68d8      	ldr	r0, [r3, #12]
 8000eec:	4302      	orrs	r2, r0
 8000eee:	6062      	str	r2, [r4, #4]
  tmpreg = (uint32_t)huart->Init.HwFlowCtl | huart->Init.OneBitSampling ;
 8000ef0:	699a      	ldr	r2, [r3, #24]
  MODIFY_REG(huart->Instance->CR3, (USART_CR3_RTSE | USART_CR3_CTSE | USART_CR3_ONEBIT), tmpreg);
 8000ef2:	68a0      	ldr	r0, [r4, #8]
  tmpreg = (uint32_t)huart->Init.HwFlowCtl | huart->Init.OneBitSampling ;
 8000ef4:	432a      	orrs	r2, r5
  MODIFY_REG(huart->Instance->CR3, (USART_CR3_RTSE | USART_CR3_CTSE | USART_CR3_ONEBIT), tmpreg);
 8000ef6:	4d2e      	ldr	r5, [pc, #184]	; (8000fb0 <UART_SetConfig+0xec>)
 8000ef8:	4028      	ands	r0, r5
 8000efa:	4302      	orrs	r2, r0

  /*-------------------------- USART BRR Configuration -----------------------*/
  UART_GETCLOCKSOURCE(huart, clocksource);
 8000efc:	2003      	movs	r0, #3
 8000efe:	2580      	movs	r5, #128	; 0x80
  MODIFY_REG(huart->Instance->CR3, (USART_CR3_RTSE | USART_CR3_CTSE | USART_CR3_ONEBIT), tmpreg);
 8000f00:	60a2      	str	r2, [r4, #8]
  UART_GETCLOCKSOURCE(huart, clocksource);
 8000f02:	4a2c      	ldr	r2, [pc, #176]	; (8000fb4 <UART_SetConfig+0xf0>)
 8000f04:	022d      	lsls	r5, r5, #8
 8000f06:	6b12      	ldr	r2, [r2, #48]	; 0x30
 8000f08:	4002      	ands	r2, r0
 8000f0a:	3a01      	subs	r2, #1
 8000f0c:	2a02      	cmp	r2, #2
 8000f0e:	d843      	bhi.n	8000f98 <UART_SetConfig+0xd4>
 8000f10:	4829      	ldr	r0, [pc, #164]	; (8000fb8 <UART_SetConfig+0xf4>)
 8000f12:	5c80      	ldrb	r0, [r0, r2]
  
  /* Check UART Over Sampling to set Baud Rate Register */
  if (huart->Init.OverSampling == UART_OVERSAMPLING_8)
 8000f14:	42a9      	cmp	r1, r5
 8000f16:	d120      	bne.n	8000f5a <UART_SetConfig+0x96>
  {
    switch (clocksource)
 8000f18:	2808      	cmp	r0, #8
 8000f1a:	d81b      	bhi.n	8000f54 <UART_SetConfig+0x90>
 8000f1c:	f7ff f980 	bl	8000220 <__gnu_thumb1_case_uqi>
 8000f20:	1a051a3e 	.word	0x1a051a3e
 8000f24:	1a1a1a3e 	.word	0x1a1a1a3e
 8000f28:	15          	.byte	0x15
 8000f29:	00          	.byte	0x00
    {
      case UART_CLOCKSOURCE_PCLK1:
        usartdiv = (uint16_t)(UART_DIV_SAMPLING8(HAL_RCC_GetPCLK1Freq(), huart->Init.BaudRate));
        break;
      case UART_CLOCKSOURCE_HSI:
        usartdiv = (uint16_t)(UART_DIV_SAMPLING8(HSI_VALUE, huart->Init.BaudRate));
 8000f2a:	6859      	ldr	r1, [r3, #4]
 8000f2c:	4b23      	ldr	r3, [pc, #140]	; (8000fbc <UART_SetConfig+0xf8>)
 8000f2e:	0848      	lsrs	r0, r1, #1
        break;
      case UART_CLOCKSOURCE_SYSCLK:
        usartdiv = (uint16_t)(UART_DIV_SAMPLING8(HAL_RCC_GetSysClockFreq(), huart->Init.BaudRate));
        break;
      case UART_CLOCKSOURCE_LSE:
        usartdiv = (uint16_t)(UART_DIV_SAMPLING8(LSE_VALUE, huart->Init.BaudRate));
 8000f30:	18c0      	adds	r0, r0, r3
 8000f32:	f7ff f97f 	bl	8000234 <__udivsi3>
 8000f36:	b283      	uxth	r3, r0
  HAL_StatusTypeDef ret               = HAL_OK;
 8000f38:	2000      	movs	r0, #0
      default:
        ret = HAL_ERROR;
        break;
    }

    brrtemp = usartdiv & 0xFFF0U;
 8000f3a:	0019      	movs	r1, r3
 8000f3c:	220f      	movs	r2, #15
    brrtemp |= (uint16_t)((usartdiv & (uint16_t)0x000FU) >> 1U);
 8000f3e:	071b      	lsls	r3, r3, #28
    brrtemp = usartdiv & 0xFFF0U;
 8000f40:	4391      	bics	r1, r2
    brrtemp |= (uint16_t)((usartdiv & (uint16_t)0x000FU) >> 1U);
 8000f42:	0f5b      	lsrs	r3, r3, #29
    huart->Instance->BRR = brrtemp;
 8000f44:	430b      	orrs	r3, r1
 8000f46:	60e3      	str	r3, [r4, #12]
    }
  }

  return ret;

}
 8000f48:	bd70      	pop	{r4, r5, r6, pc}
        usartdiv = (uint16_t)(UART_DIV_SAMPLING8(LSE_VALUE, huart->Init.BaudRate));
 8000f4a:	6859      	ldr	r1, [r3, #4]
 8000f4c:	2380      	movs	r3, #128	; 0x80
 8000f4e:	0848      	lsrs	r0, r1, #1
 8000f50:	025b      	lsls	r3, r3, #9
 8000f52:	e7ed      	b.n	8000f30 <UART_SetConfig+0x6c>
  if (huart->Init.OverSampling == UART_OVERSAMPLING_8)
 8000f54:	2001      	movs	r0, #1
 8000f56:	2300      	movs	r3, #0
 8000f58:	e7ef      	b.n	8000f3a <UART_SetConfig+0x76>
    switch (clocksource)
 8000f5a:	2808      	cmp	r0, #8
 8000f5c:	d81a      	bhi.n	8000f94 <UART_SetConfig+0xd0>
 8000f5e:	f7ff f95f 	bl	8000220 <__gnu_thumb1_case_uqi>
 8000f62:	190f      	.short	0x190f
 8000f64:	190f1905 	.word	0x190f1905
 8000f68:	1919      	.short	0x1919
 8000f6a:	14          	.byte	0x14
 8000f6b:	00          	.byte	0x00
        huart->Instance->BRR = (uint16_t)(UART_DIV_SAMPLING16(HSI_VALUE, huart->Init.BaudRate));
 8000f6c:	6859      	ldr	r1, [r3, #4]
 8000f6e:	4b14      	ldr	r3, [pc, #80]	; (8000fc0 <UART_SetConfig+0xfc>)
 8000f70:	0848      	lsrs	r0, r1, #1
        huart->Instance->BRR = (uint16_t)(UART_DIV_SAMPLING16(LSE_VALUE, huart->Init.BaudRate));
 8000f72:	18c0      	adds	r0, r0, r3
 8000f74:	f7ff f95e 	bl	8000234 <__udivsi3>
 8000f78:	b280      	uxth	r0, r0
 8000f7a:	60e0      	str	r0, [r4, #12]
  HAL_StatusTypeDef ret               = HAL_OK;
 8000f7c:	2000      	movs	r0, #0
        break;
 8000f7e:	e7e3      	b.n	8000f48 <UART_SetConfig+0x84>
        huart->Instance->BRR = (uint16_t)(UART_DIV_SAMPLING16(HAL_RCC_GetSysClockFreq(), huart->Init.BaudRate));
 8000f80:	6859      	ldr	r1, [r3, #4]
 8000f82:	23e1      	movs	r3, #225	; 0xe1
 8000f84:	0848      	lsrs	r0, r1, #1
 8000f86:	03db      	lsls	r3, r3, #15
 8000f88:	e7f3      	b.n	8000f72 <UART_SetConfig+0xae>
        huart->Instance->BRR = (uint16_t)(UART_DIV_SAMPLING16(LSE_VALUE, huart->Init.BaudRate));
 8000f8a:	6859      	ldr	r1, [r3, #4]
 8000f8c:	2380      	movs	r3, #128	; 0x80
 8000f8e:	0848      	lsrs	r0, r1, #1
 8000f90:	021b      	lsls	r3, r3, #8
 8000f92:	e7ee      	b.n	8000f72 <UART_SetConfig+0xae>
  if (huart->Init.OverSampling == UART_OVERSAMPLING_8)
 8000f94:	2001      	movs	r0, #1
  return ret;
 8000f96:	e7d7      	b.n	8000f48 <UART_SetConfig+0x84>
  if (huart->Init.OverSampling == UART_OVERSAMPLING_8)
 8000f98:	42a9      	cmp	r1, r5
 8000f9a:	d1f1      	bne.n	8000f80 <UART_SetConfig+0xbc>
        usartdiv = (uint16_t)(UART_DIV_SAMPLING8(HAL_RCC_GetSysClockFreq(), huart->Init.BaudRate));
 8000f9c:	6859      	ldr	r1, [r3, #4]
 8000f9e:	23e1      	movs	r3, #225	; 0xe1
 8000fa0:	0848      	lsrs	r0, r1, #1
 8000fa2:	041b      	lsls	r3, r3, #16
 8000fa4:	e7c4      	b.n	8000f30 <UART_SetConfig+0x6c>
 8000fa6:	46c0      	nop			; (mov r8, r8)
 8000fa8:	ffff69f3 	.word	0xffff69f3
 8000fac:	ffffcfff 	.word	0xffffcfff
 8000fb0:	fffff4ff 	.word	0xfffff4ff
 8000fb4:	40021000 	.word	0x40021000
 8000fb8:	08001260 	.word	0x08001260
 8000fbc:	01e84800 	.word	0x01e84800
 8000fc0:	00f42400 	.word	0x00f42400

08000fc4 <HAL_UART_Init>:
  *        parameters in the UART_InitTypeDef and initialize the associated handle.
  * @param huart: UART handle.
  * @retval HAL status
  */
HAL_StatusTypeDef HAL_UART_Init(UART_HandleTypeDef *huart)
{
 8000fc4:	b570      	push	{r4, r5, r6, lr}
 8000fc6:	1e04      	subs	r4, r0, #0
  /* Check the UART handle allocation */
  if(huart == NULL)
 8000fc8:	d101      	bne.n	8000fce <HAL_UART_Init+0xa>
  {
    return HAL_ERROR;
 8000fca:	2001      	movs	r0, #1
  /* Enable the Peripheral */
  __HAL_UART_ENABLE(huart);

  /* TEACK and/or REACK to check before moving huart->gState and huart->RxState to Ready */
  return (UART_CheckIdleState(huart));
}
 8000fcc:	bd70      	pop	{r4, r5, r6, pc}
  if(huart->gState == HAL_UART_STATE_RESET)
 8000fce:	0005      	movs	r5, r0
 8000fd0:	3569      	adds	r5, #105	; 0x69
 8000fd2:	782b      	ldrb	r3, [r5, #0]
 8000fd4:	b2da      	uxtb	r2, r3
 8000fd6:	2b00      	cmp	r3, #0
 8000fd8:	d102      	bne.n	8000fe0 <HAL_UART_Init+0x1c>
    huart->Lock = HAL_UNLOCKED;
 8000fda:	0003      	movs	r3, r0
 8000fdc:	3368      	adds	r3, #104	; 0x68
 8000fde:	701a      	strb	r2, [r3, #0]
  huart->gState = HAL_UART_STATE_BUSY;
 8000fe0:	2324      	movs	r3, #36	; 0x24
  __HAL_UART_DISABLE(huart);
 8000fe2:	2601      	movs	r6, #1
  huart->gState = HAL_UART_STATE_BUSY;
 8000fe4:	702b      	strb	r3, [r5, #0]
  __HAL_UART_DISABLE(huart);
 8000fe6:	6822      	ldr	r2, [r4, #0]
  if (UART_SetConfig(huart) == HAL_ERROR)
 8000fe8:	0020      	movs	r0, r4
  __HAL_UART_DISABLE(huart);
 8000fea:	6813      	ldr	r3, [r2, #0]
 8000fec:	43b3      	bics	r3, r6
 8000fee:	6013      	str	r3, [r2, #0]
  if (UART_SetConfig(huart) == HAL_ERROR)
 8000ff0:	f7ff ff68 	bl	8000ec4 <UART_SetConfig>
 8000ff4:	42b0      	cmp	r0, r6
 8000ff6:	d0e8      	beq.n	8000fca <HAL_UART_Init+0x6>
  CLEAR_BIT(huart->Instance->CR2, USART_CR2_CLKEN);
 8000ff8:	6823      	ldr	r3, [r4, #0]
 8000ffa:	490a      	ldr	r1, [pc, #40]	; (8001024 <HAL_UART_Init+0x60>)
 8000ffc:	685a      	ldr	r2, [r3, #4]
  huart->ErrorCode = HAL_UART_ERROR_NONE;
 8000ffe:	2000      	movs	r0, #0
  CLEAR_BIT(huart->Instance->CR2, USART_CR2_CLKEN);
 8001000:	400a      	ands	r2, r1
  CLEAR_BIT(huart->Instance->CR3, USART_CR3_HDSEL);
 8001002:	2108      	movs	r1, #8
  CLEAR_BIT(huart->Instance->CR2, USART_CR2_CLKEN);
 8001004:	605a      	str	r2, [r3, #4]
  CLEAR_BIT(huart->Instance->CR3, USART_CR3_HDSEL);
 8001006:	689a      	ldr	r2, [r3, #8]
 8001008:	438a      	bics	r2, r1
 800100a:	609a      	str	r2, [r3, #8]
  __HAL_UART_ENABLE(huart);
 800100c:	681a      	ldr	r2, [r3, #0]
 800100e:	4316      	orrs	r6, r2
  huart->RxState = HAL_UART_STATE_READY;
 8001010:	0022      	movs	r2, r4
  __HAL_UART_ENABLE(huart);
 8001012:	601e      	str	r6, [r3, #0]
  huart->gState  = HAL_UART_STATE_READY;
 8001014:	2320      	movs	r3, #32
  huart->ErrorCode = HAL_UART_ERROR_NONE;
 8001016:	66e0      	str	r0, [r4, #108]	; 0x6c
  huart->RxState = HAL_UART_STATE_READY;
 8001018:	326a      	adds	r2, #106	; 0x6a
  __HAL_UNLOCK(huart);
 800101a:	3468      	adds	r4, #104	; 0x68
  huart->gState  = HAL_UART_STATE_READY;
 800101c:	702b      	strb	r3, [r5, #0]
  huart->RxState = HAL_UART_STATE_READY;
 800101e:	7013      	strb	r3, [r2, #0]
  __HAL_UNLOCK(huart);
 8001020:	7020      	strb	r0, [r4, #0]
  return (UART_CheckIdleState(huart));
 8001022:	e7d3      	b.n	8000fcc <HAL_UART_Init+0x8>
 8001024:	fffff7ff 	.word	0xfffff7ff

08001028 <HAL_UART_Receive>:
  *         (as received data will be handled using u16 pointer cast). Depending on compilation chain,
  *         use of specific alignment compilation directives or pragmas might be required to ensure proper alignment for pData.
  * @retval HAL status
  */
HAL_StatusTypeDef HAL_UART_Receive(UART_HandleTypeDef *huart, uint8_t *pData, uint16_t Size, uint32_t Timeout)
{
 8001028:	b5f0      	push	{r4, r5, r6, r7, lr}
 800102a:	b085      	sub	sp, #20
 800102c:	9303      	str	r3, [sp, #12]
  uint16_t* tmp;
  uint16_t uhMask;
  uint32_t tickstart = 0;

  /* Check that a Rx process is not already ongoing */
  if(huart->RxState == HAL_UART_STATE_READY)
 800102e:	0003      	movs	r3, r0
 8001030:	336a      	adds	r3, #106	; 0x6a
{
 8001032:	0017      	movs	r7, r2
  if(huart->RxState == HAL_UART_STATE_READY)
 8001034:	781a      	ldrb	r2, [r3, #0]
{
 8001036:	0004      	movs	r4, r0
 8001038:	000d      	movs	r5, r1

    return HAL_OK;
  }
  else
  {
    return HAL_BUSY;
 800103a:	2002      	movs	r0, #2
  if(huart->RxState == HAL_UART_STATE_READY)
 800103c:	2a20      	cmp	r2, #32
 800103e:	d139      	bne.n	80010b4 <HAL_UART_Receive+0x8c>
      return  HAL_ERROR;
 8001040:	3801      	subs	r0, #1
    if((pData == NULL ) || (Size == 0U))
 8001042:	2900      	cmp	r1, #0
 8001044:	d036      	beq.n	80010b4 <HAL_UART_Receive+0x8c>
 8001046:	2f00      	cmp	r7, #0
 8001048:	d034      	beq.n	80010b4 <HAL_UART_Receive+0x8c>
    if ((huart->Init.WordLength == UART_WORDLENGTH_9B) && (huart->Init.Parity == UART_PARITY_NONE))
 800104a:	2280      	movs	r2, #128	; 0x80
 800104c:	68a1      	ldr	r1, [r4, #8]
 800104e:	0152      	lsls	r2, r2, #5
 8001050:	4291      	cmp	r1, r2
 8001052:	d104      	bne.n	800105e <HAL_UART_Receive+0x36>
 8001054:	6922      	ldr	r2, [r4, #16]
 8001056:	2a00      	cmp	r2, #0
 8001058:	d101      	bne.n	800105e <HAL_UART_Receive+0x36>
      if((((uint32_t)pData)&1U) != 0U)
 800105a:	4205      	tst	r5, r0
 800105c:	d12a      	bne.n	80010b4 <HAL_UART_Receive+0x8c>
    __HAL_LOCK(huart);
 800105e:	0022      	movs	r2, r4
 8001060:	3268      	adds	r2, #104	; 0x68
 8001062:	7811      	ldrb	r1, [r2, #0]
    return HAL_BUSY;
 8001064:	2002      	movs	r0, #2
    __HAL_LOCK(huart);
 8001066:	2901      	cmp	r1, #1
 8001068:	d024      	beq.n	80010b4 <HAL_UART_Receive+0x8c>
 800106a:	2101      	movs	r1, #1
 800106c:	7011      	strb	r1, [r2, #0]
    huart->ErrorCode = HAL_UART_ERROR_NONE;
 800106e:	2200      	movs	r2, #0
 8001070:	66e2      	str	r2, [r4, #108]	; 0x6c
    huart->RxState = HAL_UART_STATE_BUSY_RX;
 8001072:	3222      	adds	r2, #34	; 0x22
 8001074:	701a      	strb	r2, [r3, #0]
    tickstart = HAL_GetTick();
 8001076:	f7ff fbc7 	bl	8000808 <HAL_GetTick>
    huart->RxXferSize = Size;
 800107a:	0023      	movs	r3, r4
    UART_MASK_COMPUTATION(huart);
 800107c:	2180      	movs	r1, #128	; 0x80
 800107e:	68a2      	ldr	r2, [r4, #8]
    huart->RxXferSize = Size;
 8001080:	3358      	adds	r3, #88	; 0x58
 8001082:	801f      	strh	r7, [r3, #0]
    huart->RxXferCount = Size;
 8001084:	805f      	strh	r7, [r3, #2]
    tickstart = HAL_GetTick();
 8001086:	0006      	movs	r6, r0
    UART_MASK_COMPUTATION(huart);
 8001088:	0149      	lsls	r1, r1, #5
 800108a:	3304      	adds	r3, #4
 800108c:	428a      	cmp	r2, r1
 800108e:	d115      	bne.n	80010bc <HAL_UART_Receive+0x94>
 8001090:	6922      	ldr	r2, [r4, #16]
 8001092:	2a00      	cmp	r2, #0
 8001094:	d110      	bne.n	80010b8 <HAL_UART_Receive+0x90>
 8001096:	4a1f      	ldr	r2, [pc, #124]	; (8001114 <HAL_UART_Receive+0xec>)
 8001098:	801a      	strh	r2, [r3, #0]
    uhMask = huart->Mask;
 800109a:	881f      	ldrh	r7, [r3, #0]
    while(huart->RxXferCount > 0U)
 800109c:	0022      	movs	r2, r4
 800109e:	325a      	adds	r2, #90	; 0x5a
 80010a0:	8813      	ldrh	r3, [r2, #0]
 80010a2:	b298      	uxth	r0, r3
 80010a4:	2b00      	cmp	r3, #0
 80010a6:	d110      	bne.n	80010ca <HAL_UART_Receive+0xa2>
    huart->RxState = HAL_UART_STATE_READY;
 80010a8:	0023      	movs	r3, r4
 80010aa:	2220      	movs	r2, #32
 80010ac:	336a      	adds	r3, #106	; 0x6a
    __HAL_UNLOCK(huart);
 80010ae:	3468      	adds	r4, #104	; 0x68
    huart->RxState = HAL_UART_STATE_READY;
 80010b0:	701a      	strb	r2, [r3, #0]
    __HAL_UNLOCK(huart);
 80010b2:	7020      	strb	r0, [r4, #0]
  }
}
 80010b4:	b005      	add	sp, #20
 80010b6:	bdf0      	pop	{r4, r5, r6, r7, pc}
    UART_MASK_COMPUTATION(huart);
 80010b8:	22ff      	movs	r2, #255	; 0xff
 80010ba:	e7ed      	b.n	8001098 <HAL_UART_Receive+0x70>
 80010bc:	2a00      	cmp	r2, #0
 80010be:	d1ec      	bne.n	800109a <HAL_UART_Receive+0x72>
 80010c0:	6922      	ldr	r2, [r4, #16]
 80010c2:	2a00      	cmp	r2, #0
 80010c4:	d0f8      	beq.n	80010b8 <HAL_UART_Receive+0x90>
 80010c6:	227f      	movs	r2, #127	; 0x7f
 80010c8:	e7e6      	b.n	8001098 <HAL_UART_Receive+0x70>
      huart->RxXferCount--;
 80010ca:	8813      	ldrh	r3, [r2, #0]
      if(UART_WaitOnFlagUntilTimeout(huart, UART_FLAG_RXNE, RESET, tickstart, Timeout) != HAL_OK)
 80010cc:	2120      	movs	r1, #32
      huart->RxXferCount--;
 80010ce:	3b01      	subs	r3, #1
 80010d0:	b29b      	uxth	r3, r3
 80010d2:	8013      	strh	r3, [r2, #0]
      if(UART_WaitOnFlagUntilTimeout(huart, UART_FLAG_RXNE, RESET, tickstart, Timeout) != HAL_OK)
 80010d4:	9b03      	ldr	r3, [sp, #12]
 80010d6:	2200      	movs	r2, #0
 80010d8:	9300      	str	r3, [sp, #0]
 80010da:	0020      	movs	r0, r4
 80010dc:	0033      	movs	r3, r6
 80010de:	f7ff febf 	bl	8000e60 <UART_WaitOnFlagUntilTimeout>
 80010e2:	2800      	cmp	r0, #0
 80010e4:	d113      	bne.n	800110e <HAL_UART_Receive+0xe6>
      if ((huart->Init.WordLength == UART_WORDLENGTH_9B) && (huart->Init.Parity == UART_PARITY_NONE))
 80010e6:	68a2      	ldr	r2, [r4, #8]
 80010e8:	6823      	ldr	r3, [r4, #0]
 80010ea:	0011      	movs	r1, r2
 80010ec:	2280      	movs	r2, #128	; 0x80
 80010ee:	0152      	lsls	r2, r2, #5
 80010f0:	4291      	cmp	r1, r2
 80010f2:	d107      	bne.n	8001104 <HAL_UART_Receive+0xdc>
 80010f4:	6922      	ldr	r2, [r4, #16]
 80010f6:	2a00      	cmp	r2, #0
 80010f8:	d104      	bne.n	8001104 <HAL_UART_Receive+0xdc>
        *tmp = (uint16_t)(huart->Instance->RDR & uhMask);
 80010fa:	8c9b      	ldrh	r3, [r3, #36]	; 0x24
 80010fc:	403b      	ands	r3, r7
 80010fe:	802b      	strh	r3, [r5, #0]
        pData +=2U;
 8001100:	3502      	adds	r5, #2
 8001102:	e7cb      	b.n	800109c <HAL_UART_Receive+0x74>
        *pData++ = (uint8_t)(huart->Instance->RDR & (uint8_t)uhMask);
 8001104:	8c9b      	ldrh	r3, [r3, #36]	; 0x24
 8001106:	403b      	ands	r3, r7
 8001108:	702b      	strb	r3, [r5, #0]
 800110a:	3501      	adds	r5, #1
 800110c:	e7c6      	b.n	800109c <HAL_UART_Receive+0x74>
        return HAL_TIMEOUT;
 800110e:	2003      	movs	r0, #3
 8001110:	e7d0      	b.n	80010b4 <HAL_UART_Receive+0x8c>
 8001112:	46c0      	nop			; (mov r8, r8)
 8001114:	000001ff 	.word	0x000001ff

08001118 <HAL_UART_Transmit>:
  *         (as sent data will be handled using u16 pointer cast). Depending on compilation chain,
  *         use of specific alignment compilation directives or pragmas might be required to ensure proper alignment for pData.
  * @retval HAL status
  */
HAL_StatusTypeDef HAL_UART_Transmit(UART_HandleTypeDef *huart, uint8_t *pData, uint16_t Size, uint32_t Timeout)
{
 8001118:	b5f0      	push	{r4, r5, r6, r7, lr}
 800111a:	b085      	sub	sp, #20
 800111c:	9303      	str	r3, [sp, #12]
  uint16_t* tmp;
  uint32_t tickstart = 0U;

  /* Check that a Tx process is not already ongoing */
  if(huart->gState == HAL_UART_STATE_READY)
 800111e:	0003      	movs	r3, r0
 8001120:	3369      	adds	r3, #105	; 0x69
 8001122:	9302      	str	r3, [sp, #8]
 8001124:	781b      	ldrb	r3, [r3, #0]
{
 8001126:	0004      	movs	r4, r0
 8001128:	000d      	movs	r5, r1
 800112a:	0016      	movs	r6, r2

    return HAL_OK;
  }
  else
  {
    return HAL_BUSY;
 800112c:	2002      	movs	r0, #2
  if(huart->gState == HAL_UART_STATE_READY)
 800112e:	2b20      	cmp	r3, #32
 8001130:	d148      	bne.n	80011c4 <HAL_UART_Transmit+0xac>
      return  HAL_ERROR;
 8001132:	3801      	subs	r0, #1
    if((pData == NULL ) || (Size == 0U))
 8001134:	2900      	cmp	r1, #0
 8001136:	d045      	beq.n	80011c4 <HAL_UART_Transmit+0xac>
 8001138:	2a00      	cmp	r2, #0
 800113a:	d043      	beq.n	80011c4 <HAL_UART_Transmit+0xac>
    if ((huart->Init.WordLength == UART_WORDLENGTH_9B) && (huart->Init.Parity == UART_PARITY_NONE))
 800113c:	2380      	movs	r3, #128	; 0x80
 800113e:	68a2      	ldr	r2, [r4, #8]
 8001140:	015b      	lsls	r3, r3, #5
 8001142:	429a      	cmp	r2, r3
 8001144:	d104      	bne.n	8001150 <HAL_UART_Transmit+0x38>
 8001146:	6923      	ldr	r3, [r4, #16]
 8001148:	2b00      	cmp	r3, #0
 800114a:	d101      	bne.n	8001150 <HAL_UART_Transmit+0x38>
      if((((uint32_t)pData)&1U) != 0U)
 800114c:	4201      	tst	r1, r0
 800114e:	d139      	bne.n	80011c4 <HAL_UART_Transmit+0xac>
    __HAL_LOCK(huart);
 8001150:	0023      	movs	r3, r4
 8001152:	3368      	adds	r3, #104	; 0x68
 8001154:	781a      	ldrb	r2, [r3, #0]
    return HAL_BUSY;
 8001156:	2002      	movs	r0, #2
    __HAL_LOCK(huart);
 8001158:	2a01      	cmp	r2, #1
 800115a:	d033      	beq.n	80011c4 <HAL_UART_Transmit+0xac>
 800115c:	2201      	movs	r2, #1
 800115e:	701a      	strb	r2, [r3, #0]
    huart->ErrorCode = HAL_UART_ERROR_NONE;
 8001160:	2300      	movs	r3, #0
    huart->gState = HAL_UART_STATE_BUSY_TX;
 8001162:	9a02      	ldr	r2, [sp, #8]
    huart->ErrorCode = HAL_UART_ERROR_NONE;
 8001164:	66e3      	str	r3, [r4, #108]	; 0x6c
    huart->gState = HAL_UART_STATE_BUSY_TX;
 8001166:	3321      	adds	r3, #33	; 0x21
 8001168:	7013      	strb	r3, [r2, #0]
    tickstart = HAL_GetTick();
 800116a:	f7ff fb4d 	bl	8000808 <HAL_GetTick>
    huart->TxXferSize = Size;
 800116e:	0023      	movs	r3, r4
 8001170:	3350      	adds	r3, #80	; 0x50
 8001172:	801e      	strh	r6, [r3, #0]
    huart->TxXferCount = Size;
 8001174:	805e      	strh	r6, [r3, #2]
      if ((huart->Init.WordLength == UART_WORDLENGTH_9B) && (huart->Init.Parity == UART_PARITY_NONE))
 8001176:	2680      	movs	r6, #128	; 0x80
    tickstart = HAL_GetTick();
 8001178:	0007      	movs	r7, r0
      if ((huart->Init.WordLength == UART_WORDLENGTH_9B) && (huart->Init.Parity == UART_PARITY_NONE))
 800117a:	0176      	lsls	r6, r6, #5
    while(huart->TxXferCount > 0)
 800117c:	0021      	movs	r1, r4
 800117e:	3152      	adds	r1, #82	; 0x52
 8001180:	880b      	ldrh	r3, [r1, #0]
 8001182:	b29a      	uxth	r2, r3
 8001184:	2b00      	cmp	r3, #0
 8001186:	d10e      	bne.n	80011a6 <HAL_UART_Transmit+0x8e>
    if(UART_WaitOnFlagUntilTimeout(huart, UART_FLAG_TC, RESET, tickstart, Timeout) != HAL_OK)
 8001188:	9b03      	ldr	r3, [sp, #12]
 800118a:	2140      	movs	r1, #64	; 0x40
 800118c:	9300      	str	r3, [sp, #0]
 800118e:	0020      	movs	r0, r4
 8001190:	003b      	movs	r3, r7
 8001192:	f7ff fe65 	bl	8000e60 <UART_WaitOnFlagUntilTimeout>
 8001196:	2800      	cmp	r0, #0
 8001198:	d113      	bne.n	80011c2 <HAL_UART_Transmit+0xaa>
    huart->gState = HAL_UART_STATE_READY;
 800119a:	2320      	movs	r3, #32
 800119c:	9a02      	ldr	r2, [sp, #8]
    __HAL_UNLOCK(huart);
 800119e:	3468      	adds	r4, #104	; 0x68
    huart->gState = HAL_UART_STATE_READY;
 80011a0:	7013      	strb	r3, [r2, #0]
    __HAL_UNLOCK(huart);
 80011a2:	7020      	strb	r0, [r4, #0]
    return HAL_OK;
 80011a4:	e00e      	b.n	80011c4 <HAL_UART_Transmit+0xac>
      huart->TxXferCount--;
 80011a6:	880b      	ldrh	r3, [r1, #0]
      if(UART_WaitOnFlagUntilTimeout(huart, UART_FLAG_TXE, RESET, tickstart, Timeout) != HAL_OK)
 80011a8:	2200      	movs	r2, #0
      huart->TxXferCount--;
 80011aa:	3b01      	subs	r3, #1
 80011ac:	b29b      	uxth	r3, r3
 80011ae:	800b      	strh	r3, [r1, #0]
      if(UART_WaitOnFlagUntilTimeout(huart, UART_FLAG_TXE, RESET, tickstart, Timeout) != HAL_OK)
 80011b0:	9b03      	ldr	r3, [sp, #12]
 80011b2:	2180      	movs	r1, #128	; 0x80
 80011b4:	9300      	str	r3, [sp, #0]
 80011b6:	0020      	movs	r0, r4
 80011b8:	003b      	movs	r3, r7
 80011ba:	f7ff fe51 	bl	8000e60 <UART_WaitOnFlagUntilTimeout>
 80011be:	2800      	cmp	r0, #0
 80011c0:	d002      	beq.n	80011c8 <HAL_UART_Transmit+0xb0>
        return HAL_TIMEOUT;
 80011c2:	2003      	movs	r0, #3
  }
}
 80011c4:	b005      	add	sp, #20
 80011c6:	bdf0      	pop	{r4, r5, r6, r7, pc}
      if ((huart->Init.WordLength == UART_WORDLENGTH_9B) && (huart->Init.Parity == UART_PARITY_NONE))
 80011c8:	68a3      	ldr	r3, [r4, #8]
 80011ca:	6822      	ldr	r2, [r4, #0]
 80011cc:	42b3      	cmp	r3, r6
 80011ce:	d108      	bne.n	80011e2 <HAL_UART_Transmit+0xca>
 80011d0:	6923      	ldr	r3, [r4, #16]
 80011d2:	2b00      	cmp	r3, #0
 80011d4:	d105      	bne.n	80011e2 <HAL_UART_Transmit+0xca>
        huart->Instance->TDR = (*tmp & (uint16_t)0x01FFU);
 80011d6:	882b      	ldrh	r3, [r5, #0]
        pData += 2;
 80011d8:	3502      	adds	r5, #2
        huart->Instance->TDR = (*tmp & (uint16_t)0x01FFU);
 80011da:	05db      	lsls	r3, r3, #23
 80011dc:	0ddb      	lsrs	r3, r3, #23
 80011de:	8513      	strh	r3, [r2, #40]	; 0x28
        pData += 2;
 80011e0:	e7cc      	b.n	800117c <HAL_UART_Transmit+0x64>
        huart->Instance->TDR = (*pData++ & (uint8_t)0xFFU);
 80011e2:	782b      	ldrb	r3, [r5, #0]
 80011e4:	3501      	adds	r5, #1
 80011e6:	8513      	strh	r3, [r2, #40]	; 0x28
 80011e8:	e7c8      	b.n	800117c <HAL_UART_Transmit+0x64>
 80011ea:	0000      	movs	r0, r0

080011ec <Reset_Handler>:
 80011ec:	2100      	movs	r1, #0
 80011ee:	e003      	b.n	80011f8 <LoopCopyDataInit>

080011f0 <CopyDataInit>:
 80011f0:	4b0b      	ldr	r3, [pc, #44]	; (8001220 <LoopForever+0x2>)
 80011f2:	585b      	ldr	r3, [r3, r1]
 80011f4:	5043      	str	r3, [r0, r1]
 80011f6:	3104      	adds	r1, #4

080011f8 <LoopCopyDataInit>:
 80011f8:	480a      	ldr	r0, [pc, #40]	; (8001224 <LoopForever+0x6>)
 80011fa:	4b0b      	ldr	r3, [pc, #44]	; (8001228 <LoopForever+0xa>)
 80011fc:	1842      	adds	r2, r0, r1
 80011fe:	429a      	cmp	r2, r3
 8001200:	d3f6      	bcc.n	80011f0 <CopyDataInit>
 8001202:	4a0a      	ldr	r2, [pc, #40]	; (800122c <LoopForever+0xe>)
 8001204:	e002      	b.n	800120c <LoopFillZerobss>

08001206 <FillZerobss>:
 8001206:	2300      	movs	r3, #0
 8001208:	6013      	str	r3, [r2, #0]
 800120a:	3204      	adds	r2, #4

0800120c <LoopFillZerobss>:
 800120c:	4b08      	ldr	r3, [pc, #32]	; (8001230 <LoopForever+0x12>)
 800120e:	429a      	cmp	r2, r3
 8001210:	d3f9      	bcc.n	8001206 <FillZerobss>
 8001212:	e000      	b.n	8001216 <LoopFillZerobss+0xa>
 8001214:	bf00      	nop
 8001216:	f7ff f899 	bl	800034c <__libc_init_array>
 800121a:	f7ff f8eb 	bl	80003f4 <main>

0800121e <LoopForever>:
 800121e:	e7fe      	b.n	800121e <LoopForever>
 8001220:	0800126c 	.word	0x0800126c
 8001224:	20000000 	.word	0x20000000
 8001228:	20000008 	.word	0x20000008
 800122c:	20000008 	.word	0x20000008
 8001230:	2000019c 	.word	0x2000019c

08001234 <BusFault_Handler>:
 8001234:	e7fe      	b.n	8001234 <BusFault_Handler>
 8001236:	0000      	movs	r0, r0

08001238 <_init>:
 8001238:	b5f8      	push	{r3, r4, r5, r6, r7, lr}
 800123a:	46c0      	nop			; (mov r8, r8)
 800123c:	bcf8      	pop	{r3, r4, r5, r6, r7}
 800123e:	bc08      	pop	{r3}
 8001240:	469e      	mov	lr, r3
 8001242:	4770      	bx	lr

08001244 <_fini>:
 8001244:	b5f8      	push	{r3, r4, r5, r6, r7, lr}
 8001246:	46c0      	nop			; (mov r8, r8)
 8001248:	bcf8      	pop	{r3, r4, r5, r6, r7}
 800124a:	bc08      	pop	{r3}
 800124c:	469e      	mov	lr, r3
 800124e:	4770      	bx	lr
