   1              		.cpu cortex-m0
   2              		.eabi_attribute 20, 1
   3              		.eabi_attribute 21, 1
   4              		.eabi_attribute 23, 3
   5              		.eabi_attribute 24, 1
   6              		.eabi_attribute 25, 1
   7              		.eabi_attribute 26, 1
   8              		.eabi_attribute 30, 2
   9              		.eabi_attribute 34, 0
  10              		.eabi_attribute 18, 4
  11              		.file	"bignum.c"
  12              		.text
  13              	.Ltext0:
  14              		.cfi_sections	.debug_frame
  15              		.section	.text.mpi_sub_hlp,"ax",%progbits
  16              		.align	1
  17              		.p2align 2,,3
  18              		.arch armv6s-m
  19              		.syntax unified
  20              		.code	16
  21              		.thumb_func
  22              		.fpu softvfp
  24              	mpi_sub_hlp:
  25              	.LVL0:
  26              	.LFB31:
  27              		.file 1 ".././crypto/mbedtls//library/bignum.c"
   1:.././crypto/mbedtls//library/bignum.c **** /*
   2:.././crypto/mbedtls//library/bignum.c ****  *  Multi-precision integer library
   3:.././crypto/mbedtls//library/bignum.c ****  *
   4:.././crypto/mbedtls//library/bignum.c ****  *  Copyright (C) 2006-2015, ARM Limited, All Rights Reserved
   5:.././crypto/mbedtls//library/bignum.c ****  *  SPDX-License-Identifier: Apache-2.0
   6:.././crypto/mbedtls//library/bignum.c ****  *
   7:.././crypto/mbedtls//library/bignum.c ****  *  Licensed under the Apache License, Version 2.0 (the "License"); you may
   8:.././crypto/mbedtls//library/bignum.c ****  *  not use this file except in compliance with the License.
   9:.././crypto/mbedtls//library/bignum.c ****  *  You may obtain a copy of the License at
  10:.././crypto/mbedtls//library/bignum.c ****  *
  11:.././crypto/mbedtls//library/bignum.c ****  *  http://www.apache.org/licenses/LICENSE-2.0
  12:.././crypto/mbedtls//library/bignum.c ****  *
  13:.././crypto/mbedtls//library/bignum.c ****  *  Unless required by applicable law or agreed to in writing, software
  14:.././crypto/mbedtls//library/bignum.c ****  *  distributed under the License is distributed on an "AS IS" BASIS, WITHOUT
  15:.././crypto/mbedtls//library/bignum.c ****  *  WARRANTIES OR CONDITIONS OF ANY KIND, either express or implied.
  16:.././crypto/mbedtls//library/bignum.c ****  *  See the License for the specific language governing permissions and
  17:.././crypto/mbedtls//library/bignum.c ****  *  limitations under the License.
  18:.././crypto/mbedtls//library/bignum.c ****  *
  19:.././crypto/mbedtls//library/bignum.c ****  *  This file is part of mbed TLS (https://tls.mbed.org)
  20:.././crypto/mbedtls//library/bignum.c ****  */
  21:.././crypto/mbedtls//library/bignum.c **** 
  22:.././crypto/mbedtls//library/bignum.c **** /*
  23:.././crypto/mbedtls//library/bignum.c ****  *  The following sources were referenced in the design of this Multi-precision
  24:.././crypto/mbedtls//library/bignum.c ****  *  Integer library:
  25:.././crypto/mbedtls//library/bignum.c ****  *
  26:.././crypto/mbedtls//library/bignum.c ****  *  [1] Handbook of Applied Cryptography - 1997
  27:.././crypto/mbedtls//library/bignum.c ****  *      Menezes, van Oorschot and Vanstone
  28:.././crypto/mbedtls//library/bignum.c ****  *
  29:.././crypto/mbedtls//library/bignum.c ****  *  [2] Multi-Precision Math
  30:.././crypto/mbedtls//library/bignum.c ****  *      Tom St Denis
  31:.././crypto/mbedtls//library/bignum.c ****  *      https://github.com/libtom/libtommath/blob/develop/tommath.pdf
  32:.././crypto/mbedtls//library/bignum.c ****  *
  33:.././crypto/mbedtls//library/bignum.c ****  *  [3] GNU Multi-Precision Arithmetic Library
  34:.././crypto/mbedtls//library/bignum.c ****  *      https://gmplib.org/manual/index.html
  35:.././crypto/mbedtls//library/bignum.c ****  *
  36:.././crypto/mbedtls//library/bignum.c ****  */
  37:.././crypto/mbedtls//library/bignum.c **** 
  38:.././crypto/mbedtls//library/bignum.c **** #if !defined(MBEDTLS_CONFIG_FILE)
  39:.././crypto/mbedtls//library/bignum.c **** #include "mbedtls/config.h"
  40:.././crypto/mbedtls//library/bignum.c **** #else
  41:.././crypto/mbedtls//library/bignum.c **** #include MBEDTLS_CONFIG_FILE
  42:.././crypto/mbedtls//library/bignum.c **** #endif
  43:.././crypto/mbedtls//library/bignum.c **** 
  44:.././crypto/mbedtls//library/bignum.c **** #if defined(MBEDTLS_BIGNUM_C)
  45:.././crypto/mbedtls//library/bignum.c **** 
  46:.././crypto/mbedtls//library/bignum.c **** #include "mbedtls/bignum.h"
  47:.././crypto/mbedtls//library/bignum.c **** #include "mbedtls/bn_mul.h"
  48:.././crypto/mbedtls//library/bignum.c **** 
  49:.././crypto/mbedtls//library/bignum.c **** #include <string.h>
  50:.././crypto/mbedtls//library/bignum.c **** 
  51:.././crypto/mbedtls//library/bignum.c **** #if defined(MBEDTLS_PLATFORM_C)
  52:.././crypto/mbedtls//library/bignum.c **** #include "mbedtls/platform.h"
  53:.././crypto/mbedtls//library/bignum.c **** #else
  54:.././crypto/mbedtls//library/bignum.c **** #include <stdio.h>
  55:.././crypto/mbedtls//library/bignum.c **** #include <stdlib.h>
  56:.././crypto/mbedtls//library/bignum.c **** #define mbedtls_printf     printf
  57:.././crypto/mbedtls//library/bignum.c **** #define mbedtls_calloc    calloc
  58:.././crypto/mbedtls//library/bignum.c **** #define mbedtls_free       free
  59:.././crypto/mbedtls//library/bignum.c **** #endif
  60:.././crypto/mbedtls//library/bignum.c **** 
  61:.././crypto/mbedtls//library/bignum.c **** /* Implementation that should never be optimized out by the compiler */
  62:.././crypto/mbedtls//library/bignum.c **** static void mbedtls_mpi_zeroize( mbedtls_mpi_uint *v, size_t n ) {
  63:.././crypto/mbedtls//library/bignum.c ****     volatile mbedtls_mpi_uint *p = v; while( n-- ) *p++ = 0;
  64:.././crypto/mbedtls//library/bignum.c **** }
  65:.././crypto/mbedtls//library/bignum.c **** 
  66:.././crypto/mbedtls//library/bignum.c **** #define ciL    (sizeof(mbedtls_mpi_uint))         /* chars in limb  */
  67:.././crypto/mbedtls//library/bignum.c **** #define biL    (ciL << 3)               /* bits  in limb  */
  68:.././crypto/mbedtls//library/bignum.c **** #define biH    (ciL << 2)               /* half limb size */
  69:.././crypto/mbedtls//library/bignum.c **** 
  70:.././crypto/mbedtls//library/bignum.c **** #define MPI_SIZE_T_MAX  ( (size_t) -1 ) /* SIZE_T_MAX is not standard */
  71:.././crypto/mbedtls//library/bignum.c **** 
  72:.././crypto/mbedtls//library/bignum.c **** /*
  73:.././crypto/mbedtls//library/bignum.c ****  * Convert between bits/chars and number of limbs
  74:.././crypto/mbedtls//library/bignum.c ****  * Divide first in order to avoid potential overflows
  75:.././crypto/mbedtls//library/bignum.c ****  */
  76:.././crypto/mbedtls//library/bignum.c **** #define BITS_TO_LIMBS(i)  ( (i) / biL + ( (i) % biL != 0 ) )
  77:.././crypto/mbedtls//library/bignum.c **** #define CHARS_TO_LIMBS(i) ( (i) / ciL + ( (i) % ciL != 0 ) )
  78:.././crypto/mbedtls//library/bignum.c **** 
  79:.././crypto/mbedtls//library/bignum.c **** /*
  80:.././crypto/mbedtls//library/bignum.c ****  * Initialize one MPI
  81:.././crypto/mbedtls//library/bignum.c ****  */
  82:.././crypto/mbedtls//library/bignum.c **** void mbedtls_mpi_init( mbedtls_mpi *X )
  83:.././crypto/mbedtls//library/bignum.c **** {
  84:.././crypto/mbedtls//library/bignum.c ****     if( X == NULL )
  85:.././crypto/mbedtls//library/bignum.c ****         return;
  86:.././crypto/mbedtls//library/bignum.c **** 
  87:.././crypto/mbedtls//library/bignum.c ****     X->s = 1;
  88:.././crypto/mbedtls//library/bignum.c ****     X->n = 0;
  89:.././crypto/mbedtls//library/bignum.c ****     X->p = NULL;
  90:.././crypto/mbedtls//library/bignum.c **** }
  91:.././crypto/mbedtls//library/bignum.c **** 
  92:.././crypto/mbedtls//library/bignum.c **** /*
  93:.././crypto/mbedtls//library/bignum.c ****  * Unallocate one MPI
  94:.././crypto/mbedtls//library/bignum.c ****  */
  95:.././crypto/mbedtls//library/bignum.c **** void mbedtls_mpi_free( mbedtls_mpi *X )
  96:.././crypto/mbedtls//library/bignum.c **** {
  97:.././crypto/mbedtls//library/bignum.c ****     if( X == NULL )
  98:.././crypto/mbedtls//library/bignum.c ****         return;
  99:.././crypto/mbedtls//library/bignum.c **** 
 100:.././crypto/mbedtls//library/bignum.c ****     if( X->p != NULL )
 101:.././crypto/mbedtls//library/bignum.c ****     {
 102:.././crypto/mbedtls//library/bignum.c ****         mbedtls_mpi_zeroize( X->p, X->n );
 103:.././crypto/mbedtls//library/bignum.c ****         mbedtls_free( X->p );
 104:.././crypto/mbedtls//library/bignum.c ****     }
 105:.././crypto/mbedtls//library/bignum.c **** 
 106:.././crypto/mbedtls//library/bignum.c ****     X->s = 1;
 107:.././crypto/mbedtls//library/bignum.c ****     X->n = 0;
 108:.././crypto/mbedtls//library/bignum.c ****     X->p = NULL;
 109:.././crypto/mbedtls//library/bignum.c **** }
 110:.././crypto/mbedtls//library/bignum.c **** 
 111:.././crypto/mbedtls//library/bignum.c **** /*
 112:.././crypto/mbedtls//library/bignum.c ****  * Enlarge to the specified number of limbs
 113:.././crypto/mbedtls//library/bignum.c ****  */
 114:.././crypto/mbedtls//library/bignum.c **** int mbedtls_mpi_grow( mbedtls_mpi *X, size_t nblimbs )
 115:.././crypto/mbedtls//library/bignum.c **** {
 116:.././crypto/mbedtls//library/bignum.c ****     mbedtls_mpi_uint *p;
 117:.././crypto/mbedtls//library/bignum.c **** 
 118:.././crypto/mbedtls//library/bignum.c ****     if( nblimbs > MBEDTLS_MPI_MAX_LIMBS )
 119:.././crypto/mbedtls//library/bignum.c ****         return( MBEDTLS_ERR_MPI_ALLOC_FAILED );
 120:.././crypto/mbedtls//library/bignum.c **** 
 121:.././crypto/mbedtls//library/bignum.c ****     if( X->n < nblimbs )
 122:.././crypto/mbedtls//library/bignum.c ****     {
 123:.././crypto/mbedtls//library/bignum.c ****         if( ( p = (mbedtls_mpi_uint*)mbedtls_calloc( nblimbs, ciL ) ) == NULL )
 124:.././crypto/mbedtls//library/bignum.c ****             return( MBEDTLS_ERR_MPI_ALLOC_FAILED );
 125:.././crypto/mbedtls//library/bignum.c **** 
 126:.././crypto/mbedtls//library/bignum.c ****         if( X->p != NULL )
 127:.././crypto/mbedtls//library/bignum.c ****         {
 128:.././crypto/mbedtls//library/bignum.c ****             memcpy( p, X->p, X->n * ciL );
 129:.././crypto/mbedtls//library/bignum.c ****             mbedtls_mpi_zeroize( X->p, X->n );
 130:.././crypto/mbedtls//library/bignum.c ****             mbedtls_free( X->p );
 131:.././crypto/mbedtls//library/bignum.c ****         }
 132:.././crypto/mbedtls//library/bignum.c **** 
 133:.././crypto/mbedtls//library/bignum.c ****         X->n = nblimbs;
 134:.././crypto/mbedtls//library/bignum.c ****         X->p = p;
 135:.././crypto/mbedtls//library/bignum.c ****     }
 136:.././crypto/mbedtls//library/bignum.c **** 
 137:.././crypto/mbedtls//library/bignum.c ****     return( 0 );
 138:.././crypto/mbedtls//library/bignum.c **** }
 139:.././crypto/mbedtls//library/bignum.c **** 
 140:.././crypto/mbedtls//library/bignum.c **** /*
 141:.././crypto/mbedtls//library/bignum.c ****  * Resize down as much as possible,
 142:.././crypto/mbedtls//library/bignum.c ****  * while keeping at least the specified number of limbs
 143:.././crypto/mbedtls//library/bignum.c ****  */
 144:.././crypto/mbedtls//library/bignum.c **** int mbedtls_mpi_shrink( mbedtls_mpi *X, size_t nblimbs )
 145:.././crypto/mbedtls//library/bignum.c **** {
 146:.././crypto/mbedtls//library/bignum.c ****     mbedtls_mpi_uint *p;
 147:.././crypto/mbedtls//library/bignum.c ****     size_t i;
 148:.././crypto/mbedtls//library/bignum.c **** 
 149:.././crypto/mbedtls//library/bignum.c ****     /* Actually resize up in this case */
 150:.././crypto/mbedtls//library/bignum.c ****     if( X->n <= nblimbs )
 151:.././crypto/mbedtls//library/bignum.c ****         return( mbedtls_mpi_grow( X, nblimbs ) );
 152:.././crypto/mbedtls//library/bignum.c **** 
 153:.././crypto/mbedtls//library/bignum.c ****     for( i = X->n - 1; i > 0; i-- )
 154:.././crypto/mbedtls//library/bignum.c ****         if( X->p[i] != 0 )
 155:.././crypto/mbedtls//library/bignum.c ****             break;
 156:.././crypto/mbedtls//library/bignum.c ****     i++;
 157:.././crypto/mbedtls//library/bignum.c **** 
 158:.././crypto/mbedtls//library/bignum.c ****     if( i < nblimbs )
 159:.././crypto/mbedtls//library/bignum.c ****         i = nblimbs;
 160:.././crypto/mbedtls//library/bignum.c **** 
 161:.././crypto/mbedtls//library/bignum.c ****     if( ( p = (mbedtls_mpi_uint*)mbedtls_calloc( i, ciL ) ) == NULL )
 162:.././crypto/mbedtls//library/bignum.c ****         return( MBEDTLS_ERR_MPI_ALLOC_FAILED );
 163:.././crypto/mbedtls//library/bignum.c **** 
 164:.././crypto/mbedtls//library/bignum.c ****     if( X->p != NULL )
 165:.././crypto/mbedtls//library/bignum.c ****     {
 166:.././crypto/mbedtls//library/bignum.c ****         memcpy( p, X->p, i * ciL );
 167:.././crypto/mbedtls//library/bignum.c ****         mbedtls_mpi_zeroize( X->p, X->n );
 168:.././crypto/mbedtls//library/bignum.c ****         mbedtls_free( X->p );
 169:.././crypto/mbedtls//library/bignum.c ****     }
 170:.././crypto/mbedtls//library/bignum.c **** 
 171:.././crypto/mbedtls//library/bignum.c ****     X->n = i;
 172:.././crypto/mbedtls//library/bignum.c ****     X->p = p;
 173:.././crypto/mbedtls//library/bignum.c **** 
 174:.././crypto/mbedtls//library/bignum.c ****     return( 0 );
 175:.././crypto/mbedtls//library/bignum.c **** }
 176:.././crypto/mbedtls//library/bignum.c **** 
 177:.././crypto/mbedtls//library/bignum.c **** /*
 178:.././crypto/mbedtls//library/bignum.c ****  * Copy the contents of Y into X
 179:.././crypto/mbedtls//library/bignum.c ****  */
 180:.././crypto/mbedtls//library/bignum.c **** int mbedtls_mpi_copy( mbedtls_mpi *X, const mbedtls_mpi *Y )
 181:.././crypto/mbedtls//library/bignum.c **** {
 182:.././crypto/mbedtls//library/bignum.c ****     int ret;
 183:.././crypto/mbedtls//library/bignum.c ****     size_t i;
 184:.././crypto/mbedtls//library/bignum.c **** 
 185:.././crypto/mbedtls//library/bignum.c ****     if( X == Y )
 186:.././crypto/mbedtls//library/bignum.c ****         return( 0 );
 187:.././crypto/mbedtls//library/bignum.c **** 
 188:.././crypto/mbedtls//library/bignum.c ****     if( Y->p == NULL )
 189:.././crypto/mbedtls//library/bignum.c ****     {
 190:.././crypto/mbedtls//library/bignum.c ****         mbedtls_mpi_free( X );
 191:.././crypto/mbedtls//library/bignum.c ****         return( 0 );
 192:.././crypto/mbedtls//library/bignum.c ****     }
 193:.././crypto/mbedtls//library/bignum.c **** 
 194:.././crypto/mbedtls//library/bignum.c ****     for( i = Y->n - 1; i > 0; i-- )
 195:.././crypto/mbedtls//library/bignum.c ****         if( Y->p[i] != 0 )
 196:.././crypto/mbedtls//library/bignum.c ****             break;
 197:.././crypto/mbedtls//library/bignum.c ****     i++;
 198:.././crypto/mbedtls//library/bignum.c **** 
 199:.././crypto/mbedtls//library/bignum.c ****     X->s = Y->s;
 200:.././crypto/mbedtls//library/bignum.c **** 
 201:.././crypto/mbedtls//library/bignum.c ****     MBEDTLS_MPI_CHK( mbedtls_mpi_grow( X, i ) );
 202:.././crypto/mbedtls//library/bignum.c **** 
 203:.././crypto/mbedtls//library/bignum.c ****     memset( X->p, 0, X->n * ciL );
 204:.././crypto/mbedtls//library/bignum.c ****     memcpy( X->p, Y->p, i * ciL );
 205:.././crypto/mbedtls//library/bignum.c **** 
 206:.././crypto/mbedtls//library/bignum.c **** cleanup:
 207:.././crypto/mbedtls//library/bignum.c **** 
 208:.././crypto/mbedtls//library/bignum.c ****     return( ret );
 209:.././crypto/mbedtls//library/bignum.c **** }
 210:.././crypto/mbedtls//library/bignum.c **** 
 211:.././crypto/mbedtls//library/bignum.c **** /*
 212:.././crypto/mbedtls//library/bignum.c ****  * Swap the contents of X and Y
 213:.././crypto/mbedtls//library/bignum.c ****  */
 214:.././crypto/mbedtls//library/bignum.c **** void mbedtls_mpi_swap( mbedtls_mpi *X, mbedtls_mpi *Y )
 215:.././crypto/mbedtls//library/bignum.c **** {
 216:.././crypto/mbedtls//library/bignum.c ****     mbedtls_mpi T;
 217:.././crypto/mbedtls//library/bignum.c **** 
 218:.././crypto/mbedtls//library/bignum.c ****     memcpy( &T,  X, sizeof( mbedtls_mpi ) );
 219:.././crypto/mbedtls//library/bignum.c ****     memcpy(  X,  Y, sizeof( mbedtls_mpi ) );
 220:.././crypto/mbedtls//library/bignum.c ****     memcpy(  Y, &T, sizeof( mbedtls_mpi ) );
 221:.././crypto/mbedtls//library/bignum.c **** }
 222:.././crypto/mbedtls//library/bignum.c **** 
 223:.././crypto/mbedtls//library/bignum.c **** /*
 224:.././crypto/mbedtls//library/bignum.c ****  * Conditionally assign X = Y, without leaking information
 225:.././crypto/mbedtls//library/bignum.c ****  * about whether the assignment was made or not.
 226:.././crypto/mbedtls//library/bignum.c ****  * (Leaking information about the respective sizes of X and Y is ok however.)
 227:.././crypto/mbedtls//library/bignum.c ****  */
 228:.././crypto/mbedtls//library/bignum.c **** int mbedtls_mpi_safe_cond_assign( mbedtls_mpi *X, const mbedtls_mpi *Y, unsigned char assign )
 229:.././crypto/mbedtls//library/bignum.c **** {
 230:.././crypto/mbedtls//library/bignum.c ****     int ret = 0;
 231:.././crypto/mbedtls//library/bignum.c ****     size_t i;
 232:.././crypto/mbedtls//library/bignum.c **** 
 233:.././crypto/mbedtls//library/bignum.c ****     /* make sure assign is 0 or 1 in a time-constant manner */
 234:.././crypto/mbedtls//library/bignum.c ****     assign = (assign | (unsigned char)-assign) >> 7;
 235:.././crypto/mbedtls//library/bignum.c **** 
 236:.././crypto/mbedtls//library/bignum.c ****     MBEDTLS_MPI_CHK( mbedtls_mpi_grow( X, Y->n ) );
 237:.././crypto/mbedtls//library/bignum.c **** 
 238:.././crypto/mbedtls//library/bignum.c ****     X->s = X->s * ( 1 - assign ) + Y->s * assign;
 239:.././crypto/mbedtls//library/bignum.c **** 
 240:.././crypto/mbedtls//library/bignum.c ****     for( i = 0; i < Y->n; i++ )
 241:.././crypto/mbedtls//library/bignum.c ****         X->p[i] = X->p[i] * ( 1 - assign ) + Y->p[i] * assign;
 242:.././crypto/mbedtls//library/bignum.c **** 
 243:.././crypto/mbedtls//library/bignum.c ****     for( ; i < X->n; i++ )
 244:.././crypto/mbedtls//library/bignum.c ****         X->p[i] *= ( 1 - assign );
 245:.././crypto/mbedtls//library/bignum.c **** 
 246:.././crypto/mbedtls//library/bignum.c **** cleanup:
 247:.././crypto/mbedtls//library/bignum.c ****     return( ret );
 248:.././crypto/mbedtls//library/bignum.c **** }
 249:.././crypto/mbedtls//library/bignum.c **** 
 250:.././crypto/mbedtls//library/bignum.c **** /*
 251:.././crypto/mbedtls//library/bignum.c ****  * Conditionally swap X and Y, without leaking information
 252:.././crypto/mbedtls//library/bignum.c ****  * about whether the swap was made or not.
 253:.././crypto/mbedtls//library/bignum.c ****  * Here it is not ok to simply swap the pointers, which whould lead to
 254:.././crypto/mbedtls//library/bignum.c ****  * different memory access patterns when X and Y are used afterwards.
 255:.././crypto/mbedtls//library/bignum.c ****  */
 256:.././crypto/mbedtls//library/bignum.c **** int mbedtls_mpi_safe_cond_swap( mbedtls_mpi *X, mbedtls_mpi *Y, unsigned char swap )
 257:.././crypto/mbedtls//library/bignum.c **** {
 258:.././crypto/mbedtls//library/bignum.c ****     int ret, s;
 259:.././crypto/mbedtls//library/bignum.c ****     size_t i;
 260:.././crypto/mbedtls//library/bignum.c ****     mbedtls_mpi_uint tmp;
 261:.././crypto/mbedtls//library/bignum.c **** 
 262:.././crypto/mbedtls//library/bignum.c ****     if( X == Y )
 263:.././crypto/mbedtls//library/bignum.c ****         return( 0 );
 264:.././crypto/mbedtls//library/bignum.c **** 
 265:.././crypto/mbedtls//library/bignum.c ****     /* make sure swap is 0 or 1 in a time-constant manner */
 266:.././crypto/mbedtls//library/bignum.c ****     swap = (swap | (unsigned char)-swap) >> 7;
 267:.././crypto/mbedtls//library/bignum.c **** 
 268:.././crypto/mbedtls//library/bignum.c ****     MBEDTLS_MPI_CHK( mbedtls_mpi_grow( X, Y->n ) );
 269:.././crypto/mbedtls//library/bignum.c ****     MBEDTLS_MPI_CHK( mbedtls_mpi_grow( Y, X->n ) );
 270:.././crypto/mbedtls//library/bignum.c **** 
 271:.././crypto/mbedtls//library/bignum.c ****     s = X->s;
 272:.././crypto/mbedtls//library/bignum.c ****     X->s = X->s * ( 1 - swap ) + Y->s * swap;
 273:.././crypto/mbedtls//library/bignum.c ****     Y->s = Y->s * ( 1 - swap ) +    s * swap;
 274:.././crypto/mbedtls//library/bignum.c **** 
 275:.././crypto/mbedtls//library/bignum.c **** 
 276:.././crypto/mbedtls//library/bignum.c ****     for( i = 0; i < X->n; i++ )
 277:.././crypto/mbedtls//library/bignum.c ****     {
 278:.././crypto/mbedtls//library/bignum.c ****         tmp = X->p[i];
 279:.././crypto/mbedtls//library/bignum.c ****         X->p[i] = X->p[i] * ( 1 - swap ) + Y->p[i] * swap;
 280:.././crypto/mbedtls//library/bignum.c ****         Y->p[i] = Y->p[i] * ( 1 - swap ) +     tmp * swap;
 281:.././crypto/mbedtls//library/bignum.c ****     }
 282:.././crypto/mbedtls//library/bignum.c **** 
 283:.././crypto/mbedtls//library/bignum.c **** cleanup:
 284:.././crypto/mbedtls//library/bignum.c ****     return( ret );
 285:.././crypto/mbedtls//library/bignum.c **** }
 286:.././crypto/mbedtls//library/bignum.c **** 
 287:.././crypto/mbedtls//library/bignum.c **** /*
 288:.././crypto/mbedtls//library/bignum.c ****  * Set value from integer
 289:.././crypto/mbedtls//library/bignum.c ****  */
 290:.././crypto/mbedtls//library/bignum.c **** int mbedtls_mpi_lset( mbedtls_mpi *X, mbedtls_mpi_sint z )
 291:.././crypto/mbedtls//library/bignum.c **** {
 292:.././crypto/mbedtls//library/bignum.c ****     int ret;
 293:.././crypto/mbedtls//library/bignum.c **** 
 294:.././crypto/mbedtls//library/bignum.c ****     MBEDTLS_MPI_CHK( mbedtls_mpi_grow( X, 1 ) );
 295:.././crypto/mbedtls//library/bignum.c ****     memset( X->p, 0, X->n * ciL );
 296:.././crypto/mbedtls//library/bignum.c **** 
 297:.././crypto/mbedtls//library/bignum.c ****     X->p[0] = ( z < 0 ) ? -z : z;
 298:.././crypto/mbedtls//library/bignum.c ****     X->s    = ( z < 0 ) ? -1 : 1;
 299:.././crypto/mbedtls//library/bignum.c **** 
 300:.././crypto/mbedtls//library/bignum.c **** cleanup:
 301:.././crypto/mbedtls//library/bignum.c **** 
 302:.././crypto/mbedtls//library/bignum.c ****     return( ret );
 303:.././crypto/mbedtls//library/bignum.c **** }
 304:.././crypto/mbedtls//library/bignum.c **** 
 305:.././crypto/mbedtls//library/bignum.c **** /*
 306:.././crypto/mbedtls//library/bignum.c ****  * Get a specific bit
 307:.././crypto/mbedtls//library/bignum.c ****  */
 308:.././crypto/mbedtls//library/bignum.c **** int mbedtls_mpi_get_bit( const mbedtls_mpi *X, size_t pos )
 309:.././crypto/mbedtls//library/bignum.c **** {
 310:.././crypto/mbedtls//library/bignum.c ****     if( X->n * biL <= pos )
 311:.././crypto/mbedtls//library/bignum.c ****         return( 0 );
 312:.././crypto/mbedtls//library/bignum.c **** 
 313:.././crypto/mbedtls//library/bignum.c ****     return( ( X->p[pos / biL] >> ( pos % biL ) ) & 0x01 );
 314:.././crypto/mbedtls//library/bignum.c **** }
 315:.././crypto/mbedtls//library/bignum.c **** 
 316:.././crypto/mbedtls//library/bignum.c **** /*
 317:.././crypto/mbedtls//library/bignum.c ****  * Set a bit to a specific value of 0 or 1
 318:.././crypto/mbedtls//library/bignum.c ****  */
 319:.././crypto/mbedtls//library/bignum.c **** int mbedtls_mpi_set_bit( mbedtls_mpi *X, size_t pos, unsigned char val )
 320:.././crypto/mbedtls//library/bignum.c **** {
 321:.././crypto/mbedtls//library/bignum.c ****     int ret = 0;
 322:.././crypto/mbedtls//library/bignum.c ****     size_t off = pos / biL;
 323:.././crypto/mbedtls//library/bignum.c ****     size_t idx = pos % biL;
 324:.././crypto/mbedtls//library/bignum.c **** 
 325:.././crypto/mbedtls//library/bignum.c ****     if( val != 0 && val != 1 )
 326:.././crypto/mbedtls//library/bignum.c ****         return( MBEDTLS_ERR_MPI_BAD_INPUT_DATA );
 327:.././crypto/mbedtls//library/bignum.c **** 
 328:.././crypto/mbedtls//library/bignum.c ****     if( X->n * biL <= pos )
 329:.././crypto/mbedtls//library/bignum.c ****     {
 330:.././crypto/mbedtls//library/bignum.c ****         if( val == 0 )
 331:.././crypto/mbedtls//library/bignum.c ****             return( 0 );
 332:.././crypto/mbedtls//library/bignum.c **** 
 333:.././crypto/mbedtls//library/bignum.c ****         MBEDTLS_MPI_CHK( mbedtls_mpi_grow( X, off + 1 ) );
 334:.././crypto/mbedtls//library/bignum.c ****     }
 335:.././crypto/mbedtls//library/bignum.c **** 
 336:.././crypto/mbedtls//library/bignum.c ****     X->p[off] &= ~( (mbedtls_mpi_uint) 0x01 << idx );
 337:.././crypto/mbedtls//library/bignum.c ****     X->p[off] |= (mbedtls_mpi_uint) val << idx;
 338:.././crypto/mbedtls//library/bignum.c **** 
 339:.././crypto/mbedtls//library/bignum.c **** cleanup:
 340:.././crypto/mbedtls//library/bignum.c **** 
 341:.././crypto/mbedtls//library/bignum.c ****     return( ret );
 342:.././crypto/mbedtls//library/bignum.c **** }
 343:.././crypto/mbedtls//library/bignum.c **** 
 344:.././crypto/mbedtls//library/bignum.c **** /*
 345:.././crypto/mbedtls//library/bignum.c ****  * Return the number of less significant zero-bits
 346:.././crypto/mbedtls//library/bignum.c ****  */
 347:.././crypto/mbedtls//library/bignum.c **** size_t mbedtls_mpi_lsb( const mbedtls_mpi *X )
 348:.././crypto/mbedtls//library/bignum.c **** {
 349:.././crypto/mbedtls//library/bignum.c ****     size_t i, j, count = 0;
 350:.././crypto/mbedtls//library/bignum.c **** 
 351:.././crypto/mbedtls//library/bignum.c ****     for( i = 0; i < X->n; i++ )
 352:.././crypto/mbedtls//library/bignum.c ****         for( j = 0; j < biL; j++, count++ )
 353:.././crypto/mbedtls//library/bignum.c ****             if( ( ( X->p[i] >> j ) & 1 ) != 0 )
 354:.././crypto/mbedtls//library/bignum.c ****                 return( count );
 355:.././crypto/mbedtls//library/bignum.c **** 
 356:.././crypto/mbedtls//library/bignum.c ****     return( 0 );
 357:.././crypto/mbedtls//library/bignum.c **** }
 358:.././crypto/mbedtls//library/bignum.c **** 
 359:.././crypto/mbedtls//library/bignum.c **** /*
 360:.././crypto/mbedtls//library/bignum.c ****  * Count leading zero bits in a given integer
 361:.././crypto/mbedtls//library/bignum.c ****  */
 362:.././crypto/mbedtls//library/bignum.c **** static size_t mbedtls_clz( const mbedtls_mpi_uint x )
 363:.././crypto/mbedtls//library/bignum.c **** {
 364:.././crypto/mbedtls//library/bignum.c ****     size_t j;
 365:.././crypto/mbedtls//library/bignum.c ****     mbedtls_mpi_uint mask = (mbedtls_mpi_uint) 1 << (biL - 1);
 366:.././crypto/mbedtls//library/bignum.c **** 
 367:.././crypto/mbedtls//library/bignum.c ****     for( j = 0; j < biL; j++ )
 368:.././crypto/mbedtls//library/bignum.c ****     {
 369:.././crypto/mbedtls//library/bignum.c ****         if( x & mask ) break;
 370:.././crypto/mbedtls//library/bignum.c **** 
 371:.././crypto/mbedtls//library/bignum.c ****         mask >>= 1;
 372:.././crypto/mbedtls//library/bignum.c ****     }
 373:.././crypto/mbedtls//library/bignum.c **** 
 374:.././crypto/mbedtls//library/bignum.c ****     return j;
 375:.././crypto/mbedtls//library/bignum.c **** }
 376:.././crypto/mbedtls//library/bignum.c **** 
 377:.././crypto/mbedtls//library/bignum.c **** /*
 378:.././crypto/mbedtls//library/bignum.c ****  * Return the number of bits
 379:.././crypto/mbedtls//library/bignum.c ****  */
 380:.././crypto/mbedtls//library/bignum.c **** size_t mbedtls_mpi_bitlen( const mbedtls_mpi *X )
 381:.././crypto/mbedtls//library/bignum.c **** {
 382:.././crypto/mbedtls//library/bignum.c ****     size_t i, j;
 383:.././crypto/mbedtls//library/bignum.c **** 
 384:.././crypto/mbedtls//library/bignum.c ****     if( X->n == 0 )
 385:.././crypto/mbedtls//library/bignum.c ****         return( 0 );
 386:.././crypto/mbedtls//library/bignum.c **** 
 387:.././crypto/mbedtls//library/bignum.c ****     for( i = X->n - 1; i > 0; i-- )
 388:.././crypto/mbedtls//library/bignum.c ****         if( X->p[i] != 0 )
 389:.././crypto/mbedtls//library/bignum.c ****             break;
 390:.././crypto/mbedtls//library/bignum.c **** 
 391:.././crypto/mbedtls//library/bignum.c ****     j = biL - mbedtls_clz( X->p[i] );
 392:.././crypto/mbedtls//library/bignum.c **** 
 393:.././crypto/mbedtls//library/bignum.c ****     return( ( i * biL ) + j );
 394:.././crypto/mbedtls//library/bignum.c **** }
 395:.././crypto/mbedtls//library/bignum.c **** 
 396:.././crypto/mbedtls//library/bignum.c **** /*
 397:.././crypto/mbedtls//library/bignum.c ****  * Return the total size in bytes
 398:.././crypto/mbedtls//library/bignum.c ****  */
 399:.././crypto/mbedtls//library/bignum.c **** size_t mbedtls_mpi_size( const mbedtls_mpi *X )
 400:.././crypto/mbedtls//library/bignum.c **** {
 401:.././crypto/mbedtls//library/bignum.c ****     return( ( mbedtls_mpi_bitlen( X ) + 7 ) >> 3 );
 402:.././crypto/mbedtls//library/bignum.c **** }
 403:.././crypto/mbedtls//library/bignum.c **** 
 404:.././crypto/mbedtls//library/bignum.c **** /*
 405:.././crypto/mbedtls//library/bignum.c ****  * Convert an ASCII character to digit value
 406:.././crypto/mbedtls//library/bignum.c ****  */
 407:.././crypto/mbedtls//library/bignum.c **** static int mpi_get_digit( mbedtls_mpi_uint *d, int radix, char c )
 408:.././crypto/mbedtls//library/bignum.c **** {
 409:.././crypto/mbedtls//library/bignum.c ****     *d = 255;
 410:.././crypto/mbedtls//library/bignum.c **** 
 411:.././crypto/mbedtls//library/bignum.c ****     if( c >= 0x30 && c <= 0x39 ) *d = c - 0x30;
 412:.././crypto/mbedtls//library/bignum.c ****     if( c >= 0x41 && c <= 0x46 ) *d = c - 0x37;
 413:.././crypto/mbedtls//library/bignum.c ****     if( c >= 0x61 && c <= 0x66 ) *d = c - 0x57;
 414:.././crypto/mbedtls//library/bignum.c **** 
 415:.././crypto/mbedtls//library/bignum.c ****     if( *d >= (mbedtls_mpi_uint) radix )
 416:.././crypto/mbedtls//library/bignum.c ****         return( MBEDTLS_ERR_MPI_INVALID_CHARACTER );
 417:.././crypto/mbedtls//library/bignum.c **** 
 418:.././crypto/mbedtls//library/bignum.c ****     return( 0 );
 419:.././crypto/mbedtls//library/bignum.c **** }
 420:.././crypto/mbedtls//library/bignum.c **** 
 421:.././crypto/mbedtls//library/bignum.c **** /*
 422:.././crypto/mbedtls//library/bignum.c ****  * Import from an ASCII string
 423:.././crypto/mbedtls//library/bignum.c ****  */
 424:.././crypto/mbedtls//library/bignum.c **** int mbedtls_mpi_read_string( mbedtls_mpi *X, int radix, const char *s )
 425:.././crypto/mbedtls//library/bignum.c **** {
 426:.././crypto/mbedtls//library/bignum.c ****     int ret;
 427:.././crypto/mbedtls//library/bignum.c ****     size_t i, j, slen, n;
 428:.././crypto/mbedtls//library/bignum.c ****     mbedtls_mpi_uint d;
 429:.././crypto/mbedtls//library/bignum.c ****     mbedtls_mpi T;
 430:.././crypto/mbedtls//library/bignum.c **** 
 431:.././crypto/mbedtls//library/bignum.c ****     if( radix < 2 || radix > 16 )
 432:.././crypto/mbedtls//library/bignum.c ****         return( MBEDTLS_ERR_MPI_BAD_INPUT_DATA );
 433:.././crypto/mbedtls//library/bignum.c **** 
 434:.././crypto/mbedtls//library/bignum.c ****     mbedtls_mpi_init( &T );
 435:.././crypto/mbedtls//library/bignum.c **** 
 436:.././crypto/mbedtls//library/bignum.c ****     slen = strlen( s );
 437:.././crypto/mbedtls//library/bignum.c **** 
 438:.././crypto/mbedtls//library/bignum.c ****     if( radix == 16 )
 439:.././crypto/mbedtls//library/bignum.c ****     {
 440:.././crypto/mbedtls//library/bignum.c ****         if( slen > MPI_SIZE_T_MAX >> 2 )
 441:.././crypto/mbedtls//library/bignum.c ****             return( MBEDTLS_ERR_MPI_BAD_INPUT_DATA );
 442:.././crypto/mbedtls//library/bignum.c **** 
 443:.././crypto/mbedtls//library/bignum.c ****         n = BITS_TO_LIMBS( slen << 2 );
 444:.././crypto/mbedtls//library/bignum.c **** 
 445:.././crypto/mbedtls//library/bignum.c ****         MBEDTLS_MPI_CHK( mbedtls_mpi_grow( X, n ) );
 446:.././crypto/mbedtls//library/bignum.c ****         MBEDTLS_MPI_CHK( mbedtls_mpi_lset( X, 0 ) );
 447:.././crypto/mbedtls//library/bignum.c **** 
 448:.././crypto/mbedtls//library/bignum.c ****         for( i = slen, j = 0; i > 0; i--, j++ )
 449:.././crypto/mbedtls//library/bignum.c ****         {
 450:.././crypto/mbedtls//library/bignum.c ****             if( i == 1 && s[i - 1] == '-' )
 451:.././crypto/mbedtls//library/bignum.c ****             {
 452:.././crypto/mbedtls//library/bignum.c ****                 X->s = -1;
 453:.././crypto/mbedtls//library/bignum.c ****                 break;
 454:.././crypto/mbedtls//library/bignum.c ****             }
 455:.././crypto/mbedtls//library/bignum.c **** 
 456:.././crypto/mbedtls//library/bignum.c ****             MBEDTLS_MPI_CHK( mpi_get_digit( &d, radix, s[i - 1] ) );
 457:.././crypto/mbedtls//library/bignum.c ****             X->p[j / ( 2 * ciL )] |= d << ( ( j % ( 2 * ciL ) ) << 2 );
 458:.././crypto/mbedtls//library/bignum.c ****         }
 459:.././crypto/mbedtls//library/bignum.c ****     }
 460:.././crypto/mbedtls//library/bignum.c ****     else
 461:.././crypto/mbedtls//library/bignum.c ****     {
 462:.././crypto/mbedtls//library/bignum.c ****         MBEDTLS_MPI_CHK( mbedtls_mpi_lset( X, 0 ) );
 463:.././crypto/mbedtls//library/bignum.c **** 
 464:.././crypto/mbedtls//library/bignum.c ****         for( i = 0; i < slen; i++ )
 465:.././crypto/mbedtls//library/bignum.c ****         {
 466:.././crypto/mbedtls//library/bignum.c ****             if( i == 0 && s[i] == '-' )
 467:.././crypto/mbedtls//library/bignum.c ****             {
 468:.././crypto/mbedtls//library/bignum.c ****                 X->s = -1;
 469:.././crypto/mbedtls//library/bignum.c ****                 continue;
 470:.././crypto/mbedtls//library/bignum.c ****             }
 471:.././crypto/mbedtls//library/bignum.c **** 
 472:.././crypto/mbedtls//library/bignum.c ****             MBEDTLS_MPI_CHK( mpi_get_digit( &d, radix, s[i] ) );
 473:.././crypto/mbedtls//library/bignum.c ****             MBEDTLS_MPI_CHK( mbedtls_mpi_mul_int( &T, X, radix ) );
 474:.././crypto/mbedtls//library/bignum.c **** 
 475:.././crypto/mbedtls//library/bignum.c ****             if( X->s == 1 )
 476:.././crypto/mbedtls//library/bignum.c ****             {
 477:.././crypto/mbedtls//library/bignum.c ****                 MBEDTLS_MPI_CHK( mbedtls_mpi_add_int( X, &T, d ) );
 478:.././crypto/mbedtls//library/bignum.c ****             }
 479:.././crypto/mbedtls//library/bignum.c ****             else
 480:.././crypto/mbedtls//library/bignum.c ****             {
 481:.././crypto/mbedtls//library/bignum.c ****                 MBEDTLS_MPI_CHK( mbedtls_mpi_sub_int( X, &T, d ) );
 482:.././crypto/mbedtls//library/bignum.c ****             }
 483:.././crypto/mbedtls//library/bignum.c ****         }
 484:.././crypto/mbedtls//library/bignum.c ****     }
 485:.././crypto/mbedtls//library/bignum.c **** 
 486:.././crypto/mbedtls//library/bignum.c **** cleanup:
 487:.././crypto/mbedtls//library/bignum.c **** 
 488:.././crypto/mbedtls//library/bignum.c ****     mbedtls_mpi_free( &T );
 489:.././crypto/mbedtls//library/bignum.c **** 
 490:.././crypto/mbedtls//library/bignum.c ****     return( ret );
 491:.././crypto/mbedtls//library/bignum.c **** }
 492:.././crypto/mbedtls//library/bignum.c **** 
 493:.././crypto/mbedtls//library/bignum.c **** /*
 494:.././crypto/mbedtls//library/bignum.c ****  * Helper to write the digits high-order first
 495:.././crypto/mbedtls//library/bignum.c ****  */
 496:.././crypto/mbedtls//library/bignum.c **** static int mpi_write_hlp( mbedtls_mpi *X, int radix, char **p )
 497:.././crypto/mbedtls//library/bignum.c **** {
 498:.././crypto/mbedtls//library/bignum.c ****     int ret;
 499:.././crypto/mbedtls//library/bignum.c ****     mbedtls_mpi_uint r;
 500:.././crypto/mbedtls//library/bignum.c **** 
 501:.././crypto/mbedtls//library/bignum.c ****     if( radix < 2 || radix > 16 )
 502:.././crypto/mbedtls//library/bignum.c ****         return( MBEDTLS_ERR_MPI_BAD_INPUT_DATA );
 503:.././crypto/mbedtls//library/bignum.c **** 
 504:.././crypto/mbedtls//library/bignum.c ****     MBEDTLS_MPI_CHK( mbedtls_mpi_mod_int( &r, X, radix ) );
 505:.././crypto/mbedtls//library/bignum.c ****     MBEDTLS_MPI_CHK( mbedtls_mpi_div_int( X, NULL, X, radix ) );
 506:.././crypto/mbedtls//library/bignum.c **** 
 507:.././crypto/mbedtls//library/bignum.c ****     if( mbedtls_mpi_cmp_int( X, 0 ) != 0 )
 508:.././crypto/mbedtls//library/bignum.c ****         MBEDTLS_MPI_CHK( mpi_write_hlp( X, radix, p ) );
 509:.././crypto/mbedtls//library/bignum.c **** 
 510:.././crypto/mbedtls//library/bignum.c ****     if( r < 10 )
 511:.././crypto/mbedtls//library/bignum.c ****         *(*p)++ = (char)( r + 0x30 );
 512:.././crypto/mbedtls//library/bignum.c ****     else
 513:.././crypto/mbedtls//library/bignum.c ****         *(*p)++ = (char)( r + 0x37 );
 514:.././crypto/mbedtls//library/bignum.c **** 
 515:.././crypto/mbedtls//library/bignum.c **** cleanup:
 516:.././crypto/mbedtls//library/bignum.c **** 
 517:.././crypto/mbedtls//library/bignum.c ****     return( ret );
 518:.././crypto/mbedtls//library/bignum.c **** }
 519:.././crypto/mbedtls//library/bignum.c **** 
 520:.././crypto/mbedtls//library/bignum.c **** /*
 521:.././crypto/mbedtls//library/bignum.c ****  * Export into an ASCII string
 522:.././crypto/mbedtls//library/bignum.c ****  */
 523:.././crypto/mbedtls//library/bignum.c **** int mbedtls_mpi_write_string( const mbedtls_mpi *X, int radix,
 524:.././crypto/mbedtls//library/bignum.c ****                               char *buf, size_t buflen, size_t *olen )
 525:.././crypto/mbedtls//library/bignum.c **** {
 526:.././crypto/mbedtls//library/bignum.c ****     int ret = 0;
 527:.././crypto/mbedtls//library/bignum.c ****     size_t n;
 528:.././crypto/mbedtls//library/bignum.c ****     char *p;
 529:.././crypto/mbedtls//library/bignum.c ****     mbedtls_mpi T;
 530:.././crypto/mbedtls//library/bignum.c **** 
 531:.././crypto/mbedtls//library/bignum.c ****     if( radix < 2 || radix > 16 )
 532:.././crypto/mbedtls//library/bignum.c ****         return( MBEDTLS_ERR_MPI_BAD_INPUT_DATA );
 533:.././crypto/mbedtls//library/bignum.c **** 
 534:.././crypto/mbedtls//library/bignum.c ****     n = mbedtls_mpi_bitlen( X );
 535:.././crypto/mbedtls//library/bignum.c ****     if( radix >=  4 ) n >>= 1;
 536:.././crypto/mbedtls//library/bignum.c ****     if( radix >= 16 ) n >>= 1;
 537:.././crypto/mbedtls//library/bignum.c ****     /*
 538:.././crypto/mbedtls//library/bignum.c ****      * Round up the buffer length to an even value to ensure that there is
 539:.././crypto/mbedtls//library/bignum.c ****      * enough room for hexadecimal values that can be represented in an odd
 540:.././crypto/mbedtls//library/bignum.c ****      * number of digits.
 541:.././crypto/mbedtls//library/bignum.c ****      */
 542:.././crypto/mbedtls//library/bignum.c ****     n += 3 + ( ( n + 1 ) & 1 );
 543:.././crypto/mbedtls//library/bignum.c **** 
 544:.././crypto/mbedtls//library/bignum.c ****     if( buflen < n )
 545:.././crypto/mbedtls//library/bignum.c ****     {
 546:.././crypto/mbedtls//library/bignum.c ****         *olen = n;
 547:.././crypto/mbedtls//library/bignum.c ****         return( MBEDTLS_ERR_MPI_BUFFER_TOO_SMALL );
 548:.././crypto/mbedtls//library/bignum.c ****     }
 549:.././crypto/mbedtls//library/bignum.c **** 
 550:.././crypto/mbedtls//library/bignum.c ****     p = buf;
 551:.././crypto/mbedtls//library/bignum.c ****     mbedtls_mpi_init( &T );
 552:.././crypto/mbedtls//library/bignum.c **** 
 553:.././crypto/mbedtls//library/bignum.c ****     if( X->s == -1 )
 554:.././crypto/mbedtls//library/bignum.c ****         *p++ = '-';
 555:.././crypto/mbedtls//library/bignum.c **** 
 556:.././crypto/mbedtls//library/bignum.c ****     if( radix == 16 )
 557:.././crypto/mbedtls//library/bignum.c ****     {
 558:.././crypto/mbedtls//library/bignum.c ****         int c;
 559:.././crypto/mbedtls//library/bignum.c ****         size_t i, j, k;
 560:.././crypto/mbedtls//library/bignum.c **** 
 561:.././crypto/mbedtls//library/bignum.c ****         for( i = X->n, k = 0; i > 0; i-- )
 562:.././crypto/mbedtls//library/bignum.c ****         {
 563:.././crypto/mbedtls//library/bignum.c ****             for( j = ciL; j > 0; j-- )
 564:.././crypto/mbedtls//library/bignum.c ****             {
 565:.././crypto/mbedtls//library/bignum.c ****                 c = ( X->p[i - 1] >> ( ( j - 1 ) << 3) ) & 0xFF;
 566:.././crypto/mbedtls//library/bignum.c **** 
 567:.././crypto/mbedtls//library/bignum.c ****                 if( c == 0 && k == 0 && ( i + j ) != 2 )
 568:.././crypto/mbedtls//library/bignum.c ****                     continue;
 569:.././crypto/mbedtls//library/bignum.c **** 
 570:.././crypto/mbedtls//library/bignum.c ****                 *(p++) = "0123456789ABCDEF" [c / 16];
 571:.././crypto/mbedtls//library/bignum.c ****                 *(p++) = "0123456789ABCDEF" [c % 16];
 572:.././crypto/mbedtls//library/bignum.c ****                 k = 1;
 573:.././crypto/mbedtls//library/bignum.c ****             }
 574:.././crypto/mbedtls//library/bignum.c ****         }
 575:.././crypto/mbedtls//library/bignum.c ****     }
 576:.././crypto/mbedtls//library/bignum.c ****     else
 577:.././crypto/mbedtls//library/bignum.c ****     {
 578:.././crypto/mbedtls//library/bignum.c ****         MBEDTLS_MPI_CHK( mbedtls_mpi_copy( &T, X ) );
 579:.././crypto/mbedtls//library/bignum.c **** 
 580:.././crypto/mbedtls//library/bignum.c ****         if( T.s == -1 )
 581:.././crypto/mbedtls//library/bignum.c ****             T.s = 1;
 582:.././crypto/mbedtls//library/bignum.c **** 
 583:.././crypto/mbedtls//library/bignum.c ****         MBEDTLS_MPI_CHK( mpi_write_hlp( &T, radix, &p ) );
 584:.././crypto/mbedtls//library/bignum.c ****     }
 585:.././crypto/mbedtls//library/bignum.c **** 
 586:.././crypto/mbedtls//library/bignum.c ****     *p++ = '\0';
 587:.././crypto/mbedtls//library/bignum.c ****     *olen = p - buf;
 588:.././crypto/mbedtls//library/bignum.c **** 
 589:.././crypto/mbedtls//library/bignum.c **** cleanup:
 590:.././crypto/mbedtls//library/bignum.c **** 
 591:.././crypto/mbedtls//library/bignum.c ****     mbedtls_mpi_free( &T );
 592:.././crypto/mbedtls//library/bignum.c **** 
 593:.././crypto/mbedtls//library/bignum.c ****     return( ret );
 594:.././crypto/mbedtls//library/bignum.c **** }
 595:.././crypto/mbedtls//library/bignum.c **** 
 596:.././crypto/mbedtls//library/bignum.c **** #if defined(MBEDTLS_FS_IO)
 597:.././crypto/mbedtls//library/bignum.c **** /*
 598:.././crypto/mbedtls//library/bignum.c ****  * Read X from an opened file
 599:.././crypto/mbedtls//library/bignum.c ****  */
 600:.././crypto/mbedtls//library/bignum.c **** int mbedtls_mpi_read_file( mbedtls_mpi *X, int radix, FILE *fin )
 601:.././crypto/mbedtls//library/bignum.c **** {
 602:.././crypto/mbedtls//library/bignum.c ****     mbedtls_mpi_uint d;
 603:.././crypto/mbedtls//library/bignum.c ****     size_t slen;
 604:.././crypto/mbedtls//library/bignum.c ****     char *p;
 605:.././crypto/mbedtls//library/bignum.c ****     /*
 606:.././crypto/mbedtls//library/bignum.c ****      * Buffer should have space for (short) label and decimal formatted MPI,
 607:.././crypto/mbedtls//library/bignum.c ****      * newline characters and '\0'
 608:.././crypto/mbedtls//library/bignum.c ****      */
 609:.././crypto/mbedtls//library/bignum.c ****     char s[ MBEDTLS_MPI_RW_BUFFER_SIZE ];
 610:.././crypto/mbedtls//library/bignum.c **** 
 611:.././crypto/mbedtls//library/bignum.c ****     memset( s, 0, sizeof( s ) );
 612:.././crypto/mbedtls//library/bignum.c ****     if( fgets( s, sizeof( s ) - 1, fin ) == NULL )
 613:.././crypto/mbedtls//library/bignum.c ****         return( MBEDTLS_ERR_MPI_FILE_IO_ERROR );
 614:.././crypto/mbedtls//library/bignum.c **** 
 615:.././crypto/mbedtls//library/bignum.c ****     slen = strlen( s );
 616:.././crypto/mbedtls//library/bignum.c ****     if( slen == sizeof( s ) - 2 )
 617:.././crypto/mbedtls//library/bignum.c ****         return( MBEDTLS_ERR_MPI_BUFFER_TOO_SMALL );
 618:.././crypto/mbedtls//library/bignum.c **** 
 619:.././crypto/mbedtls//library/bignum.c ****     if( slen > 0 && s[slen - 1] == '\n' ) { slen--; s[slen] = '\0'; }
 620:.././crypto/mbedtls//library/bignum.c ****     if( slen > 0 && s[slen - 1] == '\r' ) { slen--; s[slen] = '\0'; }
 621:.././crypto/mbedtls//library/bignum.c **** 
 622:.././crypto/mbedtls//library/bignum.c ****     p = s + slen;
 623:.././crypto/mbedtls//library/bignum.c ****     while( p-- > s )
 624:.././crypto/mbedtls//library/bignum.c ****         if( mpi_get_digit( &d, radix, *p ) != 0 )
 625:.././crypto/mbedtls//library/bignum.c ****             break;
 626:.././crypto/mbedtls//library/bignum.c **** 
 627:.././crypto/mbedtls//library/bignum.c ****     return( mbedtls_mpi_read_string( X, radix, p + 1 ) );
 628:.././crypto/mbedtls//library/bignum.c **** }
 629:.././crypto/mbedtls//library/bignum.c **** 
 630:.././crypto/mbedtls//library/bignum.c **** /*
 631:.././crypto/mbedtls//library/bignum.c ****  * Write X into an opened file (or stdout if fout == NULL)
 632:.././crypto/mbedtls//library/bignum.c ****  */
 633:.././crypto/mbedtls//library/bignum.c **** int mbedtls_mpi_write_file( const char *p, const mbedtls_mpi *X, int radix, FILE *fout )
 634:.././crypto/mbedtls//library/bignum.c **** {
 635:.././crypto/mbedtls//library/bignum.c ****     int ret;
 636:.././crypto/mbedtls//library/bignum.c ****     size_t n, slen, plen;
 637:.././crypto/mbedtls//library/bignum.c ****     /*
 638:.././crypto/mbedtls//library/bignum.c ****      * Buffer should have space for (short) label and decimal formatted MPI,
 639:.././crypto/mbedtls//library/bignum.c ****      * newline characters and '\0'
 640:.././crypto/mbedtls//library/bignum.c ****      */
 641:.././crypto/mbedtls//library/bignum.c ****     char s[ MBEDTLS_MPI_RW_BUFFER_SIZE ];
 642:.././crypto/mbedtls//library/bignum.c **** 
 643:.././crypto/mbedtls//library/bignum.c ****     memset( s, 0, sizeof( s ) );
 644:.././crypto/mbedtls//library/bignum.c **** 
 645:.././crypto/mbedtls//library/bignum.c ****     MBEDTLS_MPI_CHK( mbedtls_mpi_write_string( X, radix, s, sizeof( s ) - 2, &n ) );
 646:.././crypto/mbedtls//library/bignum.c **** 
 647:.././crypto/mbedtls//library/bignum.c ****     if( p == NULL ) p = "";
 648:.././crypto/mbedtls//library/bignum.c **** 
 649:.././crypto/mbedtls//library/bignum.c ****     plen = strlen( p );
 650:.././crypto/mbedtls//library/bignum.c ****     slen = strlen( s );
 651:.././crypto/mbedtls//library/bignum.c ****     s[slen++] = '\r';
 652:.././crypto/mbedtls//library/bignum.c ****     s[slen++] = '\n';
 653:.././crypto/mbedtls//library/bignum.c **** 
 654:.././crypto/mbedtls//library/bignum.c ****     if( fout != NULL )
 655:.././crypto/mbedtls//library/bignum.c ****     {
 656:.././crypto/mbedtls//library/bignum.c ****         if( fwrite( p, 1, plen, fout ) != plen ||
 657:.././crypto/mbedtls//library/bignum.c ****             fwrite( s, 1, slen, fout ) != slen )
 658:.././crypto/mbedtls//library/bignum.c ****             return( MBEDTLS_ERR_MPI_FILE_IO_ERROR );
 659:.././crypto/mbedtls//library/bignum.c ****     }
 660:.././crypto/mbedtls//library/bignum.c ****     else
 661:.././crypto/mbedtls//library/bignum.c ****         mbedtls_printf( "%s%s", p, s );
 662:.././crypto/mbedtls//library/bignum.c **** 
 663:.././crypto/mbedtls//library/bignum.c **** cleanup:
 664:.././crypto/mbedtls//library/bignum.c **** 
 665:.././crypto/mbedtls//library/bignum.c ****     return( ret );
 666:.././crypto/mbedtls//library/bignum.c **** }
 667:.././crypto/mbedtls//library/bignum.c **** #endif /* MBEDTLS_FS_IO */
 668:.././crypto/mbedtls//library/bignum.c **** 
 669:.././crypto/mbedtls//library/bignum.c **** /*
 670:.././crypto/mbedtls//library/bignum.c ****  * Import X from unsigned binary data, big endian
 671:.././crypto/mbedtls//library/bignum.c ****  */
 672:.././crypto/mbedtls//library/bignum.c **** int mbedtls_mpi_read_binary( mbedtls_mpi *X, const unsigned char *buf, size_t buflen )
 673:.././crypto/mbedtls//library/bignum.c **** {
 674:.././crypto/mbedtls//library/bignum.c ****     int ret;
 675:.././crypto/mbedtls//library/bignum.c ****     size_t i, j, n;
 676:.././crypto/mbedtls//library/bignum.c **** 
 677:.././crypto/mbedtls//library/bignum.c ****     for( n = 0; n < buflen; n++ )
 678:.././crypto/mbedtls//library/bignum.c ****         if( buf[n] != 0 )
 679:.././crypto/mbedtls//library/bignum.c ****             break;
 680:.././crypto/mbedtls//library/bignum.c **** 
 681:.././crypto/mbedtls//library/bignum.c ****     MBEDTLS_MPI_CHK( mbedtls_mpi_grow( X, CHARS_TO_LIMBS( buflen - n ) ) );
 682:.././crypto/mbedtls//library/bignum.c ****     MBEDTLS_MPI_CHK( mbedtls_mpi_lset( X, 0 ) );
 683:.././crypto/mbedtls//library/bignum.c **** 
 684:.././crypto/mbedtls//library/bignum.c ****     for( i = buflen, j = 0; i > n; i--, j++ )
 685:.././crypto/mbedtls//library/bignum.c ****         X->p[j / ciL] |= ((mbedtls_mpi_uint) buf[i - 1]) << ((j % ciL) << 3);
 686:.././crypto/mbedtls//library/bignum.c **** 
 687:.././crypto/mbedtls//library/bignum.c **** cleanup:
 688:.././crypto/mbedtls//library/bignum.c **** 
 689:.././crypto/mbedtls//library/bignum.c ****     return( ret );
 690:.././crypto/mbedtls//library/bignum.c **** }
 691:.././crypto/mbedtls//library/bignum.c **** 
 692:.././crypto/mbedtls//library/bignum.c **** /*
 693:.././crypto/mbedtls//library/bignum.c ****  * Export X into unsigned binary data, big endian
 694:.././crypto/mbedtls//library/bignum.c ****  */
 695:.././crypto/mbedtls//library/bignum.c **** int mbedtls_mpi_write_binary( const mbedtls_mpi *X, unsigned char *buf, size_t buflen )
 696:.././crypto/mbedtls//library/bignum.c **** {
 697:.././crypto/mbedtls//library/bignum.c ****     size_t i, j, n;
 698:.././crypto/mbedtls//library/bignum.c **** 
 699:.././crypto/mbedtls//library/bignum.c ****     n = mbedtls_mpi_size( X );
 700:.././crypto/mbedtls//library/bignum.c **** 
 701:.././crypto/mbedtls//library/bignum.c ****     if( buflen < n )
 702:.././crypto/mbedtls//library/bignum.c ****         return( MBEDTLS_ERR_MPI_BUFFER_TOO_SMALL );
 703:.././crypto/mbedtls//library/bignum.c **** 
 704:.././crypto/mbedtls//library/bignum.c ****     memset( buf, 0, buflen );
 705:.././crypto/mbedtls//library/bignum.c **** 
 706:.././crypto/mbedtls//library/bignum.c ****     for( i = buflen - 1, j = 0; n > 0; i--, j++, n-- )
 707:.././crypto/mbedtls//library/bignum.c ****         buf[i] = (unsigned char)( X->p[j / ciL] >> ((j % ciL) << 3) );
 708:.././crypto/mbedtls//library/bignum.c **** 
 709:.././crypto/mbedtls//library/bignum.c ****     return( 0 );
 710:.././crypto/mbedtls//library/bignum.c **** }
 711:.././crypto/mbedtls//library/bignum.c **** 
 712:.././crypto/mbedtls//library/bignum.c **** /*
 713:.././crypto/mbedtls//library/bignum.c ****  * Left-shift: X <<= count
 714:.././crypto/mbedtls//library/bignum.c ****  */
 715:.././crypto/mbedtls//library/bignum.c **** int mbedtls_mpi_shift_l( mbedtls_mpi *X, size_t count )
 716:.././crypto/mbedtls//library/bignum.c **** {
 717:.././crypto/mbedtls//library/bignum.c ****     int ret;
 718:.././crypto/mbedtls//library/bignum.c ****     size_t i, v0, t1;
 719:.././crypto/mbedtls//library/bignum.c ****     mbedtls_mpi_uint r0 = 0, r1;
 720:.././crypto/mbedtls//library/bignum.c **** 
 721:.././crypto/mbedtls//library/bignum.c ****     v0 = count / (biL    );
 722:.././crypto/mbedtls//library/bignum.c ****     t1 = count & (biL - 1);
 723:.././crypto/mbedtls//library/bignum.c **** 
 724:.././crypto/mbedtls//library/bignum.c ****     i = mbedtls_mpi_bitlen( X ) + count;
 725:.././crypto/mbedtls//library/bignum.c **** 
 726:.././crypto/mbedtls//library/bignum.c ****     if( X->n * biL < i )
 727:.././crypto/mbedtls//library/bignum.c ****         MBEDTLS_MPI_CHK( mbedtls_mpi_grow( X, BITS_TO_LIMBS( i ) ) );
 728:.././crypto/mbedtls//library/bignum.c **** 
 729:.././crypto/mbedtls//library/bignum.c ****     ret = 0;
 730:.././crypto/mbedtls//library/bignum.c **** 
 731:.././crypto/mbedtls//library/bignum.c ****     /*
 732:.././crypto/mbedtls//library/bignum.c ****      * shift by count / limb_size
 733:.././crypto/mbedtls//library/bignum.c ****      */
 734:.././crypto/mbedtls//library/bignum.c ****     if( v0 > 0 )
 735:.././crypto/mbedtls//library/bignum.c ****     {
 736:.././crypto/mbedtls//library/bignum.c ****         for( i = X->n; i > v0; i-- )
 737:.././crypto/mbedtls//library/bignum.c ****             X->p[i - 1] = X->p[i - v0 - 1];
 738:.././crypto/mbedtls//library/bignum.c **** 
 739:.././crypto/mbedtls//library/bignum.c ****         for( ; i > 0; i-- )
 740:.././crypto/mbedtls//library/bignum.c ****             X->p[i - 1] = 0;
 741:.././crypto/mbedtls//library/bignum.c ****     }
 742:.././crypto/mbedtls//library/bignum.c **** 
 743:.././crypto/mbedtls//library/bignum.c ****     /*
 744:.././crypto/mbedtls//library/bignum.c ****      * shift by count % limb_size
 745:.././crypto/mbedtls//library/bignum.c ****      */
 746:.././crypto/mbedtls//library/bignum.c ****     if( t1 > 0 )
 747:.././crypto/mbedtls//library/bignum.c ****     {
 748:.././crypto/mbedtls//library/bignum.c ****         for( i = v0; i < X->n; i++ )
 749:.././crypto/mbedtls//library/bignum.c ****         {
 750:.././crypto/mbedtls//library/bignum.c ****             r1 = X->p[i] >> (biL - t1);
 751:.././crypto/mbedtls//library/bignum.c ****             X->p[i] <<= t1;
 752:.././crypto/mbedtls//library/bignum.c ****             X->p[i] |= r0;
 753:.././crypto/mbedtls//library/bignum.c ****             r0 = r1;
 754:.././crypto/mbedtls//library/bignum.c ****         }
 755:.././crypto/mbedtls//library/bignum.c ****     }
 756:.././crypto/mbedtls//library/bignum.c **** 
 757:.././crypto/mbedtls//library/bignum.c **** cleanup:
 758:.././crypto/mbedtls//library/bignum.c **** 
 759:.././crypto/mbedtls//library/bignum.c ****     return( ret );
 760:.././crypto/mbedtls//library/bignum.c **** }
 761:.././crypto/mbedtls//library/bignum.c **** 
 762:.././crypto/mbedtls//library/bignum.c **** /*
 763:.././crypto/mbedtls//library/bignum.c ****  * Right-shift: X >>= count
 764:.././crypto/mbedtls//library/bignum.c ****  */
 765:.././crypto/mbedtls//library/bignum.c **** int mbedtls_mpi_shift_r( mbedtls_mpi *X, size_t count )
 766:.././crypto/mbedtls//library/bignum.c **** {
 767:.././crypto/mbedtls//library/bignum.c ****     size_t i, v0, v1;
 768:.././crypto/mbedtls//library/bignum.c ****     mbedtls_mpi_uint r0 = 0, r1;
 769:.././crypto/mbedtls//library/bignum.c **** 
 770:.././crypto/mbedtls//library/bignum.c ****     v0 = count /  biL;
 771:.././crypto/mbedtls//library/bignum.c ****     v1 = count & (biL - 1);
 772:.././crypto/mbedtls//library/bignum.c **** 
 773:.././crypto/mbedtls//library/bignum.c ****     if( v0 > X->n || ( v0 == X->n && v1 > 0 ) )
 774:.././crypto/mbedtls//library/bignum.c ****         return mbedtls_mpi_lset( X, 0 );
 775:.././crypto/mbedtls//library/bignum.c **** 
 776:.././crypto/mbedtls//library/bignum.c ****     /*
 777:.././crypto/mbedtls//library/bignum.c ****      * shift by count / limb_size
 778:.././crypto/mbedtls//library/bignum.c ****      */
 779:.././crypto/mbedtls//library/bignum.c ****     if( v0 > 0 )
 780:.././crypto/mbedtls//library/bignum.c ****     {
 781:.././crypto/mbedtls//library/bignum.c ****         for( i = 0; i < X->n - v0; i++ )
 782:.././crypto/mbedtls//library/bignum.c ****             X->p[i] = X->p[i + v0];
 783:.././crypto/mbedtls//library/bignum.c **** 
 784:.././crypto/mbedtls//library/bignum.c ****         for( ; i < X->n; i++ )
 785:.././crypto/mbedtls//library/bignum.c ****             X->p[i] = 0;
 786:.././crypto/mbedtls//library/bignum.c ****     }
 787:.././crypto/mbedtls//library/bignum.c **** 
 788:.././crypto/mbedtls//library/bignum.c ****     /*
 789:.././crypto/mbedtls//library/bignum.c ****      * shift by count % limb_size
 790:.././crypto/mbedtls//library/bignum.c ****      */
 791:.././crypto/mbedtls//library/bignum.c ****     if( v1 > 0 )
 792:.././crypto/mbedtls//library/bignum.c ****     {
 793:.././crypto/mbedtls//library/bignum.c ****         for( i = X->n; i > 0; i-- )
 794:.././crypto/mbedtls//library/bignum.c ****         {
 795:.././crypto/mbedtls//library/bignum.c ****             r1 = X->p[i - 1] << (biL - v1);
 796:.././crypto/mbedtls//library/bignum.c ****             X->p[i - 1] >>= v1;
 797:.././crypto/mbedtls//library/bignum.c ****             X->p[i - 1] |= r0;
 798:.././crypto/mbedtls//library/bignum.c ****             r0 = r1;
 799:.././crypto/mbedtls//library/bignum.c ****         }
 800:.././crypto/mbedtls//library/bignum.c ****     }
 801:.././crypto/mbedtls//library/bignum.c **** 
 802:.././crypto/mbedtls//library/bignum.c ****     return( 0 );
 803:.././crypto/mbedtls//library/bignum.c **** }
 804:.././crypto/mbedtls//library/bignum.c **** 
 805:.././crypto/mbedtls//library/bignum.c **** /*
 806:.././crypto/mbedtls//library/bignum.c ****  * Compare unsigned values
 807:.././crypto/mbedtls//library/bignum.c ****  */
 808:.././crypto/mbedtls//library/bignum.c **** int mbedtls_mpi_cmp_abs( const mbedtls_mpi *X, const mbedtls_mpi *Y )
 809:.././crypto/mbedtls//library/bignum.c **** {
 810:.././crypto/mbedtls//library/bignum.c ****     size_t i, j;
 811:.././crypto/mbedtls//library/bignum.c **** 
 812:.././crypto/mbedtls//library/bignum.c ****     for( i = X->n; i > 0; i-- )
 813:.././crypto/mbedtls//library/bignum.c ****         if( X->p[i - 1] != 0 )
 814:.././crypto/mbedtls//library/bignum.c ****             break;
 815:.././crypto/mbedtls//library/bignum.c **** 
 816:.././crypto/mbedtls//library/bignum.c ****     for( j = Y->n; j > 0; j-- )
 817:.././crypto/mbedtls//library/bignum.c ****         if( Y->p[j - 1] != 0 )
 818:.././crypto/mbedtls//library/bignum.c ****             break;
 819:.././crypto/mbedtls//library/bignum.c **** 
 820:.././crypto/mbedtls//library/bignum.c ****     if( i == 0 && j == 0 )
 821:.././crypto/mbedtls//library/bignum.c ****         return( 0 );
 822:.././crypto/mbedtls//library/bignum.c **** 
 823:.././crypto/mbedtls//library/bignum.c ****     if( i > j ) return(  1 );
 824:.././crypto/mbedtls//library/bignum.c ****     if( j > i ) return( -1 );
 825:.././crypto/mbedtls//library/bignum.c **** 
 826:.././crypto/mbedtls//library/bignum.c ****     for( ; i > 0; i-- )
 827:.././crypto/mbedtls//library/bignum.c ****     {
 828:.././crypto/mbedtls//library/bignum.c ****         if( X->p[i - 1] > Y->p[i - 1] ) return(  1 );
 829:.././crypto/mbedtls//library/bignum.c ****         if( X->p[i - 1] < Y->p[i - 1] ) return( -1 );
 830:.././crypto/mbedtls//library/bignum.c ****     }
 831:.././crypto/mbedtls//library/bignum.c **** 
 832:.././crypto/mbedtls//library/bignum.c ****     return( 0 );
 833:.././crypto/mbedtls//library/bignum.c **** }
 834:.././crypto/mbedtls//library/bignum.c **** 
 835:.././crypto/mbedtls//library/bignum.c **** /*
 836:.././crypto/mbedtls//library/bignum.c ****  * Compare signed values
 837:.././crypto/mbedtls//library/bignum.c ****  */
 838:.././crypto/mbedtls//library/bignum.c **** int mbedtls_mpi_cmp_mpi( const mbedtls_mpi *X, const mbedtls_mpi *Y )
 839:.././crypto/mbedtls//library/bignum.c **** {
 840:.././crypto/mbedtls//library/bignum.c ****     size_t i, j;
 841:.././crypto/mbedtls//library/bignum.c **** 
 842:.././crypto/mbedtls//library/bignum.c ****     for( i = X->n; i > 0; i-- )
 843:.././crypto/mbedtls//library/bignum.c ****         if( X->p[i - 1] != 0 )
 844:.././crypto/mbedtls//library/bignum.c ****             break;
 845:.././crypto/mbedtls//library/bignum.c **** 
 846:.././crypto/mbedtls//library/bignum.c ****     for( j = Y->n; j > 0; j-- )
 847:.././crypto/mbedtls//library/bignum.c ****         if( Y->p[j - 1] != 0 )
 848:.././crypto/mbedtls//library/bignum.c ****             break;
 849:.././crypto/mbedtls//library/bignum.c **** 
 850:.././crypto/mbedtls//library/bignum.c ****     if( i == 0 && j == 0 )
 851:.././crypto/mbedtls//library/bignum.c ****         return( 0 );
 852:.././crypto/mbedtls//library/bignum.c **** 
 853:.././crypto/mbedtls//library/bignum.c ****     if( i > j ) return(  X->s );
 854:.././crypto/mbedtls//library/bignum.c ****     if( j > i ) return( -Y->s );
 855:.././crypto/mbedtls//library/bignum.c **** 
 856:.././crypto/mbedtls//library/bignum.c ****     if( X->s > 0 && Y->s < 0 ) return(  1 );
 857:.././crypto/mbedtls//library/bignum.c ****     if( Y->s > 0 && X->s < 0 ) return( -1 );
 858:.././crypto/mbedtls//library/bignum.c **** 
 859:.././crypto/mbedtls//library/bignum.c ****     for( ; i > 0; i-- )
 860:.././crypto/mbedtls//library/bignum.c ****     {
 861:.././crypto/mbedtls//library/bignum.c ****         if( X->p[i - 1] > Y->p[i - 1] ) return(  X->s );
 862:.././crypto/mbedtls//library/bignum.c ****         if( X->p[i - 1] < Y->p[i - 1] ) return( -X->s );
 863:.././crypto/mbedtls//library/bignum.c ****     }
 864:.././crypto/mbedtls//library/bignum.c **** 
 865:.././crypto/mbedtls//library/bignum.c ****     return( 0 );
 866:.././crypto/mbedtls//library/bignum.c **** }
 867:.././crypto/mbedtls//library/bignum.c **** 
 868:.././crypto/mbedtls//library/bignum.c **** /*
 869:.././crypto/mbedtls//library/bignum.c ****  * Compare signed values
 870:.././crypto/mbedtls//library/bignum.c ****  */
 871:.././crypto/mbedtls//library/bignum.c **** int mbedtls_mpi_cmp_int( const mbedtls_mpi *X, mbedtls_mpi_sint z )
 872:.././crypto/mbedtls//library/bignum.c **** {
 873:.././crypto/mbedtls//library/bignum.c ****     mbedtls_mpi Y;
 874:.././crypto/mbedtls//library/bignum.c ****     mbedtls_mpi_uint p[1];
 875:.././crypto/mbedtls//library/bignum.c **** 
 876:.././crypto/mbedtls//library/bignum.c ****     *p  = ( z < 0 ) ? -z : z;
 877:.././crypto/mbedtls//library/bignum.c ****     Y.s = ( z < 0 ) ? -1 : 1;
 878:.././crypto/mbedtls//library/bignum.c ****     Y.n = 1;
 879:.././crypto/mbedtls//library/bignum.c ****     Y.p = p;
 880:.././crypto/mbedtls//library/bignum.c **** 
 881:.././crypto/mbedtls//library/bignum.c ****     return( mbedtls_mpi_cmp_mpi( X, &Y ) );
 882:.././crypto/mbedtls//library/bignum.c **** }
 883:.././crypto/mbedtls//library/bignum.c **** 
 884:.././crypto/mbedtls//library/bignum.c **** /*
 885:.././crypto/mbedtls//library/bignum.c ****  * Unsigned addition: X = |A| + |B|  (HAC 14.7)
 886:.././crypto/mbedtls//library/bignum.c ****  */
 887:.././crypto/mbedtls//library/bignum.c **** int mbedtls_mpi_add_abs( mbedtls_mpi *X, const mbedtls_mpi *A, const mbedtls_mpi *B )
 888:.././crypto/mbedtls//library/bignum.c **** {
 889:.././crypto/mbedtls//library/bignum.c ****     int ret;
 890:.././crypto/mbedtls//library/bignum.c ****     size_t i, j;
 891:.././crypto/mbedtls//library/bignum.c ****     mbedtls_mpi_uint *o, *p, c, tmp;
 892:.././crypto/mbedtls//library/bignum.c **** 
 893:.././crypto/mbedtls//library/bignum.c ****     if( X == B )
 894:.././crypto/mbedtls//library/bignum.c ****     {
 895:.././crypto/mbedtls//library/bignum.c ****         const mbedtls_mpi *T = A; A = X; B = T;
 896:.././crypto/mbedtls//library/bignum.c ****     }
 897:.././crypto/mbedtls//library/bignum.c **** 
 898:.././crypto/mbedtls//library/bignum.c ****     if( X != A )
 899:.././crypto/mbedtls//library/bignum.c ****         MBEDTLS_MPI_CHK( mbedtls_mpi_copy( X, A ) );
 900:.././crypto/mbedtls//library/bignum.c **** 
 901:.././crypto/mbedtls//library/bignum.c ****     /*
 902:.././crypto/mbedtls//library/bignum.c ****      * X should always be positive as a result of unsigned additions.
 903:.././crypto/mbedtls//library/bignum.c ****      */
 904:.././crypto/mbedtls//library/bignum.c ****     X->s = 1;
 905:.././crypto/mbedtls//library/bignum.c **** 
 906:.././crypto/mbedtls//library/bignum.c ****     for( j = B->n; j > 0; j-- )
 907:.././crypto/mbedtls//library/bignum.c ****         if( B->p[j - 1] != 0 )
 908:.././crypto/mbedtls//library/bignum.c ****             break;
 909:.././crypto/mbedtls//library/bignum.c **** 
 910:.././crypto/mbedtls//library/bignum.c ****     MBEDTLS_MPI_CHK( mbedtls_mpi_grow( X, j ) );
 911:.././crypto/mbedtls//library/bignum.c **** 
 912:.././crypto/mbedtls//library/bignum.c ****     o = B->p; p = X->p; c = 0;
 913:.././crypto/mbedtls//library/bignum.c **** 
 914:.././crypto/mbedtls//library/bignum.c ****     /*
 915:.././crypto/mbedtls//library/bignum.c ****      * tmp is used because it might happen that p == o
 916:.././crypto/mbedtls//library/bignum.c ****      */
 917:.././crypto/mbedtls//library/bignum.c ****     for( i = 0; i < j; i++, o++, p++ )
 918:.././crypto/mbedtls//library/bignum.c ****     {
 919:.././crypto/mbedtls//library/bignum.c ****         tmp= *o;
 920:.././crypto/mbedtls//library/bignum.c ****         *p +=  c; c  = ( *p <  c );
 921:.././crypto/mbedtls//library/bignum.c ****         *p += tmp; c += ( *p < tmp );
 922:.././crypto/mbedtls//library/bignum.c ****     }
 923:.././crypto/mbedtls//library/bignum.c **** 
 924:.././crypto/mbedtls//library/bignum.c ****     while( c != 0 )
 925:.././crypto/mbedtls//library/bignum.c ****     {
 926:.././crypto/mbedtls//library/bignum.c ****         if( i >= X->n )
 927:.././crypto/mbedtls//library/bignum.c ****         {
 928:.././crypto/mbedtls//library/bignum.c ****             MBEDTLS_MPI_CHK( mbedtls_mpi_grow( X, i + 1 ) );
 929:.././crypto/mbedtls//library/bignum.c ****             p = X->p + i;
 930:.././crypto/mbedtls//library/bignum.c ****         }
 931:.././crypto/mbedtls//library/bignum.c **** 
 932:.././crypto/mbedtls//library/bignum.c ****         *p += c; c = ( *p < c ); i++; p++;
 933:.././crypto/mbedtls//library/bignum.c ****     }
 934:.././crypto/mbedtls//library/bignum.c **** 
 935:.././crypto/mbedtls//library/bignum.c **** cleanup:
 936:.././crypto/mbedtls//library/bignum.c **** 
 937:.././crypto/mbedtls//library/bignum.c ****     return( ret );
 938:.././crypto/mbedtls//library/bignum.c **** }
 939:.././crypto/mbedtls//library/bignum.c **** 
 940:.././crypto/mbedtls//library/bignum.c **** /*
 941:.././crypto/mbedtls//library/bignum.c ****  * Helper for mbedtls_mpi subtraction
 942:.././crypto/mbedtls//library/bignum.c ****  */
 943:.././crypto/mbedtls//library/bignum.c **** static void mpi_sub_hlp( size_t n, mbedtls_mpi_uint *s, mbedtls_mpi_uint *d )
 944:.././crypto/mbedtls//library/bignum.c **** {
  28              		.loc 1 944 1 view -0
  29              		.cfi_startproc
  30              		@ args = 0, pretend = 0, frame = 0
  31              		@ frame_needed = 0, uses_anonymous_args = 0
 945:.././crypto/mbedtls//library/bignum.c ****     size_t i;
  32              		.loc 1 945 5 view .LVU1
 946:.././crypto/mbedtls//library/bignum.c ****     mbedtls_mpi_uint c, z;
  33              		.loc 1 946 5 view .LVU2
 947:.././crypto/mbedtls//library/bignum.c **** 
 948:.././crypto/mbedtls//library/bignum.c ****     for( i = c = 0; i < n; i++, s++, d++ )
  34              		.loc 1 948 5 view .LVU3
  35              		.loc 1 948 21 view .LVU4
 944:.././crypto/mbedtls//library/bignum.c ****     size_t i;
  36              		.loc 1 944 1 is_stmt 0 view .LVU5
  37 0000 9446     		mov	ip, r2
  38 0002 F0B5     		push	{r4, r5, r6, r7, lr}
  39              	.LCFI0:
  40              		.cfi_def_cfa_offset 20
  41              		.cfi_offset 4, -20
  42              		.cfi_offset 5, -16
  43              		.cfi_offset 6, -12
  44              		.cfi_offset 7, -8
  45              		.cfi_offset 14, -4
  46              		.loc 1 948 5 view .LVU6
  47 0004 0028     		cmp	r0, #0
  48 0006 1ED0     		beq	.L1
  49 0008 1600     		movs	r6, r2
  50              		.loc 1 948 16 view .LVU7
  51 000a 0023     		movs	r3, #0
  52              		.loc 1 948 12 view .LVU8
  53 000c 0027     		movs	r7, #0
  54              	.LVL1:
  55              	.L3:
 949:.././crypto/mbedtls//library/bignum.c ****     {
 950:.././crypto/mbedtls//library/bignum.c ****         z = ( *d <  c );     *d -=  c;
  56              		.loc 1 950 9 is_stmt 1 discriminator 3 view .LVU9
  57              		.loc 1 950 15 is_stmt 0 discriminator 3 view .LVU10
  58 000e 3468     		ldr	r4, [r6]
 948:.././crypto/mbedtls//library/bignum.c ****     {
  59              		.loc 1 948 29 discriminator 3 view .LVU11
  60 0010 0137     		adds	r7, r7, #1
  61              	.LVL2:
  62              		.loc 1 950 18 discriminator 3 view .LVU12
  63 0012 9C42     		cmp	r4, r3
  64 0014 AD41     		sbcs	r5, r5, r5
  65              		.loc 1 950 33 discriminator 3 view .LVU13
  66 0016 E41A     		subs	r4, r4, r3
  67 0018 3460     		str	r4, [r6]
 951:.././crypto/mbedtls//library/bignum.c ****         c = ( *d < *s ) + z; *d -= *s;
  68              		.loc 1 951 20 discriminator 3 view .LVU14
  69 001a 04C9     		ldmia	r1!, {r2}
  70              	.LVL3:
 950:.././crypto/mbedtls//library/bignum.c ****         c = ( *d < *s ) + z; *d -= *s;
  71              		.loc 1 950 18 discriminator 3 view .LVU15
  72 001c 6D42     		rsbs	r5, r5, #0
  73              	.LVL4:
 950:.././crypto/mbedtls//library/bignum.c ****         c = ( *d < *s ) + z; *d -= *s;
  74              		.loc 1 950 30 is_stmt 1 discriminator 3 view .LVU16
  75              		.loc 1 951 9 discriminator 3 view .LVU17
  76              		.loc 1 951 18 is_stmt 0 discriminator 3 view .LVU18
  77 001e 9442     		cmp	r4, r2
  78 0020 9B41     		sbcs	r3, r3, r3
  79              	.LVL5:
  80              		.loc 1 951 33 discriminator 3 view .LVU19
  81 0022 A41A     		subs	r4, r4, r2
  82              		.loc 1 951 18 discriminator 3 view .LVU20
  83 0024 5B42     		rsbs	r3, r3, #0
  84              		.loc 1 951 11 discriminator 3 view .LVU21
  85 0026 5B19     		adds	r3, r3, r5
  86              	.LVL6:
  87              		.loc 1 951 30 is_stmt 1 discriminator 3 view .LVU22
  88              		.loc 1 951 33 is_stmt 0 discriminator 3 view .LVU23
  89 0028 10C6     		stmia	r6!, {r4}
  90              	.LVL7:
 948:.././crypto/mbedtls//library/bignum.c ****     {
  91              		.loc 1 948 28 is_stmt 1 discriminator 3 view .LVU24
 948:.././crypto/mbedtls//library/bignum.c ****     {
  92              		.loc 1 948 21 discriminator 3 view .LVU25
 948:.././crypto/mbedtls//library/bignum.c ****     {
  93              		.loc 1 948 5 is_stmt 0 discriminator 3 view .LVU26
  94 002a B842     		cmp	r0, r7
  95 002c EFD1     		bne	.L3
  96 002e 8000     		lsls	r0, r0, #2
  97              	.LVL8:
 948:.././crypto/mbedtls//library/bignum.c ****     {
  98              		.loc 1 948 5 discriminator 3 view .LVU27
  99 0030 0200     		movs	r2, r0
 100 0032 6244     		add	r2, r2, ip
 101              	.LVL9:
 952:.././crypto/mbedtls//library/bignum.c ****     }
 953:.././crypto/mbedtls//library/bignum.c **** 
 954:.././crypto/mbedtls//library/bignum.c ****     while( c != 0 )
 102              		.loc 1 954 10 is_stmt 1 view .LVU28
 103 0034 002B     		cmp	r3, #0
 104 0036 01D1     		bne	.L5
 105 0038 05E0     		b	.L1
 106              	.LVL10:
 107              	.L6:
 955:.././crypto/mbedtls//library/bignum.c ****     {
 956:.././crypto/mbedtls//library/bignum.c ****         z = ( *d < c ); *d -= c;
 957:.././crypto/mbedtls//library/bignum.c ****         c = z; i++; d++;
 108              		.loc 1 957 11 is_stmt 0 view .LVU29
 109 003a 0123     		movs	r3, #1
 110              	.LVL11:
 111              	.L5:
 956:.././crypto/mbedtls//library/bignum.c ****         c = z; i++; d++;
 112              		.loc 1 956 9 is_stmt 1 view .LVU30
 956:.././crypto/mbedtls//library/bignum.c ****         c = z; i++; d++;
 113              		.loc 1 956 15 is_stmt 0 view .LVU31
 114 003c 1168     		ldr	r1, [r2]
 115              	.LVL12:
 956:.././crypto/mbedtls//library/bignum.c ****         c = z; i++; d++;
 116              		.loc 1 956 25 is_stmt 1 view .LVU32
 956:.././crypto/mbedtls//library/bignum.c ****         c = z; i++; d++;
 117              		.loc 1 956 28 is_stmt 0 view .LVU33
 118 003e C81A     		subs	r0, r1, r3
 119 0040 01C2     		stmia	r2!, {r0}
 120              	.LVL13:
 121              		.loc 1 957 9 is_stmt 1 view .LVU34
 122              		.loc 1 957 16 view .LVU35
 123              		.loc 1 957 21 view .LVU36
 954:.././crypto/mbedtls//library/bignum.c ****     {
 124              		.loc 1 954 10 view .LVU37
 125 0042 9942     		cmp	r1, r3
 126 0044 F9D3     		bcc	.L6
 127              	.LVL14:
 128              	.L1:
 958:.././crypto/mbedtls//library/bignum.c ****     }
 959:.././crypto/mbedtls//library/bignum.c **** }
 129              		.loc 1 959 1 is_stmt 0 view .LVU38
 130              		@ sp needed
 131 0046 F0BD     		pop	{r4, r5, r6, r7, pc}
 132              		.cfi_endproc
 133              	.LFE31:
 135              		.section	.text.mpi_mul_hlp,"ax",%progbits
 136              		.align	1
 137              		.p2align 2,,3
 138              		.syntax unified
 139              		.code	16
 140              		.thumb_func
 141              		.fpu softvfp
 143              	mpi_mul_hlp:
 144              	.LVL15:
 145              	.LFB37:
 960:.././crypto/mbedtls//library/bignum.c **** 
 961:.././crypto/mbedtls//library/bignum.c **** /*
 962:.././crypto/mbedtls//library/bignum.c ****  * Unsigned subtraction: X = |A| - |B|  (HAC 14.9)
 963:.././crypto/mbedtls//library/bignum.c ****  */
 964:.././crypto/mbedtls//library/bignum.c **** int mbedtls_mpi_sub_abs( mbedtls_mpi *X, const mbedtls_mpi *A, const mbedtls_mpi *B )
 965:.././crypto/mbedtls//library/bignum.c **** {
 966:.././crypto/mbedtls//library/bignum.c ****     mbedtls_mpi TB;
 967:.././crypto/mbedtls//library/bignum.c ****     int ret;
 968:.././crypto/mbedtls//library/bignum.c ****     size_t n;
 969:.././crypto/mbedtls//library/bignum.c **** 
 970:.././crypto/mbedtls//library/bignum.c ****     if( mbedtls_mpi_cmp_abs( A, B ) < 0 )
 971:.././crypto/mbedtls//library/bignum.c ****         return( MBEDTLS_ERR_MPI_NEGATIVE_VALUE );
 972:.././crypto/mbedtls//library/bignum.c **** 
 973:.././crypto/mbedtls//library/bignum.c ****     mbedtls_mpi_init( &TB );
 974:.././crypto/mbedtls//library/bignum.c **** 
 975:.././crypto/mbedtls//library/bignum.c ****     if( X == B )
 976:.././crypto/mbedtls//library/bignum.c ****     {
 977:.././crypto/mbedtls//library/bignum.c ****         MBEDTLS_MPI_CHK( mbedtls_mpi_copy( &TB, B ) );
 978:.././crypto/mbedtls//library/bignum.c ****         B = &TB;
 979:.././crypto/mbedtls//library/bignum.c ****     }
 980:.././crypto/mbedtls//library/bignum.c **** 
 981:.././crypto/mbedtls//library/bignum.c ****     if( X != A )
 982:.././crypto/mbedtls//library/bignum.c ****         MBEDTLS_MPI_CHK( mbedtls_mpi_copy( X, A ) );
 983:.././crypto/mbedtls//library/bignum.c **** 
 984:.././crypto/mbedtls//library/bignum.c ****     /*
 985:.././crypto/mbedtls//library/bignum.c ****      * X should always be positive as a result of unsigned subtractions.
 986:.././crypto/mbedtls//library/bignum.c ****      */
 987:.././crypto/mbedtls//library/bignum.c ****     X->s = 1;
 988:.././crypto/mbedtls//library/bignum.c **** 
 989:.././crypto/mbedtls//library/bignum.c ****     ret = 0;
 990:.././crypto/mbedtls//library/bignum.c **** 
 991:.././crypto/mbedtls//library/bignum.c ****     for( n = B->n; n > 0; n-- )
 992:.././crypto/mbedtls//library/bignum.c ****         if( B->p[n - 1] != 0 )
 993:.././crypto/mbedtls//library/bignum.c ****             break;
 994:.././crypto/mbedtls//library/bignum.c **** 
 995:.././crypto/mbedtls//library/bignum.c ****     mpi_sub_hlp( n, B->p, X->p );
 996:.././crypto/mbedtls//library/bignum.c **** 
 997:.././crypto/mbedtls//library/bignum.c **** cleanup:
 998:.././crypto/mbedtls//library/bignum.c **** 
 999:.././crypto/mbedtls//library/bignum.c ****     mbedtls_mpi_free( &TB );
1000:.././crypto/mbedtls//library/bignum.c **** 
1001:.././crypto/mbedtls//library/bignum.c ****     return( ret );
1002:.././crypto/mbedtls//library/bignum.c **** }
1003:.././crypto/mbedtls//library/bignum.c **** 
1004:.././crypto/mbedtls//library/bignum.c **** /*
1005:.././crypto/mbedtls//library/bignum.c ****  * Signed addition: X = A + B
1006:.././crypto/mbedtls//library/bignum.c ****  */
1007:.././crypto/mbedtls//library/bignum.c **** int mbedtls_mpi_add_mpi( mbedtls_mpi *X, const mbedtls_mpi *A, const mbedtls_mpi *B )
1008:.././crypto/mbedtls//library/bignum.c **** {
1009:.././crypto/mbedtls//library/bignum.c ****     int ret, s = A->s;
1010:.././crypto/mbedtls//library/bignum.c **** 
1011:.././crypto/mbedtls//library/bignum.c ****     if( A->s * B->s < 0 )
1012:.././crypto/mbedtls//library/bignum.c ****     {
1013:.././crypto/mbedtls//library/bignum.c ****         if( mbedtls_mpi_cmp_abs( A, B ) >= 0 )
1014:.././crypto/mbedtls//library/bignum.c ****         {
1015:.././crypto/mbedtls//library/bignum.c ****             MBEDTLS_MPI_CHK( mbedtls_mpi_sub_abs( X, A, B ) );
1016:.././crypto/mbedtls//library/bignum.c ****             X->s =  s;
1017:.././crypto/mbedtls//library/bignum.c ****         }
1018:.././crypto/mbedtls//library/bignum.c ****         else
1019:.././crypto/mbedtls//library/bignum.c ****         {
1020:.././crypto/mbedtls//library/bignum.c ****             MBEDTLS_MPI_CHK( mbedtls_mpi_sub_abs( X, B, A ) );
1021:.././crypto/mbedtls//library/bignum.c ****             X->s = -s;
1022:.././crypto/mbedtls//library/bignum.c ****         }
1023:.././crypto/mbedtls//library/bignum.c ****     }
1024:.././crypto/mbedtls//library/bignum.c ****     else
1025:.././crypto/mbedtls//library/bignum.c ****     {
1026:.././crypto/mbedtls//library/bignum.c ****         MBEDTLS_MPI_CHK( mbedtls_mpi_add_abs( X, A, B ) );
1027:.././crypto/mbedtls//library/bignum.c ****         X->s = s;
1028:.././crypto/mbedtls//library/bignum.c ****     }
1029:.././crypto/mbedtls//library/bignum.c **** 
1030:.././crypto/mbedtls//library/bignum.c **** cleanup:
1031:.././crypto/mbedtls//library/bignum.c **** 
1032:.././crypto/mbedtls//library/bignum.c ****     return( ret );
1033:.././crypto/mbedtls//library/bignum.c **** }
1034:.././crypto/mbedtls//library/bignum.c **** 
1035:.././crypto/mbedtls//library/bignum.c **** /*
1036:.././crypto/mbedtls//library/bignum.c ****  * Signed subtraction: X = A - B
1037:.././crypto/mbedtls//library/bignum.c ****  */
1038:.././crypto/mbedtls//library/bignum.c **** int mbedtls_mpi_sub_mpi( mbedtls_mpi *X, const mbedtls_mpi *A, const mbedtls_mpi *B )
1039:.././crypto/mbedtls//library/bignum.c **** {
1040:.././crypto/mbedtls//library/bignum.c ****     int ret, s = A->s;
1041:.././crypto/mbedtls//library/bignum.c **** 
1042:.././crypto/mbedtls//library/bignum.c ****     if( A->s * B->s > 0 )
1043:.././crypto/mbedtls//library/bignum.c ****     {
1044:.././crypto/mbedtls//library/bignum.c ****         if( mbedtls_mpi_cmp_abs( A, B ) >= 0 )
1045:.././crypto/mbedtls//library/bignum.c ****         {
1046:.././crypto/mbedtls//library/bignum.c ****             MBEDTLS_MPI_CHK( mbedtls_mpi_sub_abs( X, A, B ) );
1047:.././crypto/mbedtls//library/bignum.c ****             X->s =  s;
1048:.././crypto/mbedtls//library/bignum.c ****         }
1049:.././crypto/mbedtls//library/bignum.c ****         else
1050:.././crypto/mbedtls//library/bignum.c ****         {
1051:.././crypto/mbedtls//library/bignum.c ****             MBEDTLS_MPI_CHK( mbedtls_mpi_sub_abs( X, B, A ) );
1052:.././crypto/mbedtls//library/bignum.c ****             X->s = -s;
1053:.././crypto/mbedtls//library/bignum.c ****         }
1054:.././crypto/mbedtls//library/bignum.c ****     }
1055:.././crypto/mbedtls//library/bignum.c ****     else
1056:.././crypto/mbedtls//library/bignum.c ****     {
1057:.././crypto/mbedtls//library/bignum.c ****         MBEDTLS_MPI_CHK( mbedtls_mpi_add_abs( X, A, B ) );
1058:.././crypto/mbedtls//library/bignum.c ****         X->s = s;
1059:.././crypto/mbedtls//library/bignum.c ****     }
1060:.././crypto/mbedtls//library/bignum.c **** 
1061:.././crypto/mbedtls//library/bignum.c **** cleanup:
1062:.././crypto/mbedtls//library/bignum.c **** 
1063:.././crypto/mbedtls//library/bignum.c ****     return( ret );
1064:.././crypto/mbedtls//library/bignum.c **** }
1065:.././crypto/mbedtls//library/bignum.c **** 
1066:.././crypto/mbedtls//library/bignum.c **** /*
1067:.././crypto/mbedtls//library/bignum.c ****  * Signed addition: X = A + b
1068:.././crypto/mbedtls//library/bignum.c ****  */
1069:.././crypto/mbedtls//library/bignum.c **** int mbedtls_mpi_add_int( mbedtls_mpi *X, const mbedtls_mpi *A, mbedtls_mpi_sint b )
1070:.././crypto/mbedtls//library/bignum.c **** {
1071:.././crypto/mbedtls//library/bignum.c ****     mbedtls_mpi _B;
1072:.././crypto/mbedtls//library/bignum.c ****     mbedtls_mpi_uint p[1];
1073:.././crypto/mbedtls//library/bignum.c **** 
1074:.././crypto/mbedtls//library/bignum.c ****     p[0] = ( b < 0 ) ? -b : b;
1075:.././crypto/mbedtls//library/bignum.c ****     _B.s = ( b < 0 ) ? -1 : 1;
1076:.././crypto/mbedtls//library/bignum.c ****     _B.n = 1;
1077:.././crypto/mbedtls//library/bignum.c ****     _B.p = p;
1078:.././crypto/mbedtls//library/bignum.c **** 
1079:.././crypto/mbedtls//library/bignum.c ****     return( mbedtls_mpi_add_mpi( X, A, &_B ) );
1080:.././crypto/mbedtls//library/bignum.c **** }
1081:.././crypto/mbedtls//library/bignum.c **** 
1082:.././crypto/mbedtls//library/bignum.c **** /*
1083:.././crypto/mbedtls//library/bignum.c ****  * Signed subtraction: X = A - b
1084:.././crypto/mbedtls//library/bignum.c ****  */
1085:.././crypto/mbedtls//library/bignum.c **** int mbedtls_mpi_sub_int( mbedtls_mpi *X, const mbedtls_mpi *A, mbedtls_mpi_sint b )
1086:.././crypto/mbedtls//library/bignum.c **** {
1087:.././crypto/mbedtls//library/bignum.c ****     mbedtls_mpi _B;
1088:.././crypto/mbedtls//library/bignum.c ****     mbedtls_mpi_uint p[1];
1089:.././crypto/mbedtls//library/bignum.c **** 
1090:.././crypto/mbedtls//library/bignum.c ****     p[0] = ( b < 0 ) ? -b : b;
1091:.././crypto/mbedtls//library/bignum.c ****     _B.s = ( b < 0 ) ? -1 : 1;
1092:.././crypto/mbedtls//library/bignum.c ****     _B.n = 1;
1093:.././crypto/mbedtls//library/bignum.c ****     _B.p = p;
1094:.././crypto/mbedtls//library/bignum.c **** 
1095:.././crypto/mbedtls//library/bignum.c ****     return( mbedtls_mpi_sub_mpi( X, A, &_B ) );
1096:.././crypto/mbedtls//library/bignum.c **** }
1097:.././crypto/mbedtls//library/bignum.c **** 
1098:.././crypto/mbedtls//library/bignum.c **** /*
1099:.././crypto/mbedtls//library/bignum.c ****  * Helper for mbedtls_mpi multiplication
1100:.././crypto/mbedtls//library/bignum.c ****  */
1101:.././crypto/mbedtls//library/bignum.c **** static
1102:.././crypto/mbedtls//library/bignum.c **** #if defined(__APPLE__) && defined(__arm__)
1103:.././crypto/mbedtls//library/bignum.c **** /*
1104:.././crypto/mbedtls//library/bignum.c ****  * Apple LLVM version 4.2 (clang-425.0.24) (based on LLVM 3.2svn)
1105:.././crypto/mbedtls//library/bignum.c ****  * appears to need this to prevent bad ARM code generation at -O3.
1106:.././crypto/mbedtls//library/bignum.c ****  */
1107:.././crypto/mbedtls//library/bignum.c **** __attribute__ ((noinline))
1108:.././crypto/mbedtls//library/bignum.c **** #endif
1109:.././crypto/mbedtls//library/bignum.c **** void mpi_mul_hlp( size_t i, mbedtls_mpi_uint *s, mbedtls_mpi_uint *d, mbedtls_mpi_uint b )
1110:.././crypto/mbedtls//library/bignum.c **** {
 146              		.loc 1 1110 1 is_stmt 1 view -0
 147              		.cfi_startproc
 148              		@ args = 0, pretend = 0, frame = 24
 149              		@ frame_needed = 0, uses_anonymous_args = 0
1111:.././crypto/mbedtls//library/bignum.c ****     mbedtls_mpi_uint c = 0, t = 0;
 150              		.loc 1 1111 5 view .LVU40
1110:.././crypto/mbedtls//library/bignum.c ****     mbedtls_mpi_uint c = 0, t = 0;
 151              		.loc 1 1110 1 is_stmt 0 view .LVU41
 152 0000 F0B5     		push	{r4, r5, r6, r7, lr}
 153              	.LCFI1:
 154              		.cfi_def_cfa_offset 20
 155              		.cfi_offset 4, -20
 156              		.cfi_offset 5, -16
 157              		.cfi_offset 6, -12
 158              		.cfi_offset 7, -8
 159              		.cfi_offset 14, -4
 160 0002 D646     		mov	lr, r10
 161 0004 4F46     		mov	r7, r9
 162 0006 4646     		mov	r6, r8
 163 0008 C0B5     		push	{r6, r7, lr}
 164              	.LCFI2:
 165              		.cfi_def_cfa_offset 32
 166              		.cfi_offset 8, -32
 167              		.cfi_offset 9, -28
 168              		.cfi_offset 10, -24
 169 000a 86B0     		sub	sp, sp, #24
 170              	.LCFI3:
 171              		.cfi_def_cfa_offset 56
1110:.././crypto/mbedtls//library/bignum.c ****     mbedtls_mpi_uint c = 0, t = 0;
 172              		.loc 1 1110 1 view .LVU42
 173 000c 0193     		str	r3, [sp, #4]
 174              		.loc 1 1111 22 view .LVU43
 175 000e 0023     		movs	r3, #0
 176              	.LVL16:
1110:.././crypto/mbedtls//library/bignum.c ****     mbedtls_mpi_uint c = 0, t = 0;
 177              		.loc 1 1110 1 view .LVU44
 178 0010 8446     		mov	ip, r0
 179 0012 0391     		str	r1, [sp, #12]
 180 0014 0292     		str	r2, [sp, #8]
 181              		.loc 1 1111 22 view .LVU45
 182 0016 0593     		str	r3, [sp, #20]
 183              	.LVL17:
1112:.././crypto/mbedtls//library/bignum.c **** 
1113:.././crypto/mbedtls//library/bignum.c **** #if defined(MULADDC_HUIT)
1114:.././crypto/mbedtls//library/bignum.c ****     for( ; i >= 8; i -= 8 )
1115:.././crypto/mbedtls//library/bignum.c ****     {
1116:.././crypto/mbedtls//library/bignum.c ****         MULADDC_INIT
1117:.././crypto/mbedtls//library/bignum.c ****         MULADDC_HUIT
1118:.././crypto/mbedtls//library/bignum.c ****         MULADDC_STOP
1119:.././crypto/mbedtls//library/bignum.c ****     }
1120:.././crypto/mbedtls//library/bignum.c **** 
1121:.././crypto/mbedtls//library/bignum.c ****     for( ; i > 0; i-- )
1122:.././crypto/mbedtls//library/bignum.c ****     {
1123:.././crypto/mbedtls//library/bignum.c ****         MULADDC_INIT
1124:.././crypto/mbedtls//library/bignum.c ****         MULADDC_CORE
1125:.././crypto/mbedtls//library/bignum.c ****         MULADDC_STOP
1126:.././crypto/mbedtls//library/bignum.c ****     }
1127:.././crypto/mbedtls//library/bignum.c **** #else /* MULADDC_HUIT */
1128:.././crypto/mbedtls//library/bignum.c ****     for( ; i >= 16; i -= 16 )
 184              		.loc 1 1128 5 is_stmt 1 view .LVU46
 185              		.loc 1 1128 12 view .LVU47
 186              		.loc 1 1128 5 is_stmt 0 view .LVU48
 187 0018 0F28     		cmp	r0, #15
 188 001a 00D8     		bhi	.LCB170
 189 001c E8E1     		b	.L16	@long jump
 190              	.LCB170:
 191 001e 8246     		mov	r10, r0
 192              	.LVL18:
 193              	.L17:
1129:.././crypto/mbedtls//library/bignum.c ****     {
1130:.././crypto/mbedtls//library/bignum.c ****         MULADDC_INIT
 194              		.loc 1 1130 9 is_stmt 1 discriminator 2 view .LVU49
 195              		.syntax divided
 196              	@ 1130 ".././crypto/mbedtls//library/bignum.c" 1
 197 0020 0398     		ldr    r0, [sp, #12]                      
 198 0022 0299     		ldr    r1, [sp, #8]                      
 199 0024 059A     		ldr    r2, [sp, #20]                      
 200 0026 019B     		ldr    r3, [sp, #4]                      
 201 0028 1F0C     		lsr    r7, r3, #16                 
 202 002a B946     		mov    r9, r7                      
 203 002c 1F04     		lsl    r7, r3, #16                 
 204 002e 3F0C     		lsr    r7, r7, #16                 
 205 0030 B846     		mov    r8, r7                      
 206 0032 40C8     		ldmia  r0!, {r6}                   
 207 0034 370C     		lsr    r7, r6, #16                 
 208 0036 3604     		lsl    r6, r6, #16                 
 209 0038 360C     		lsr    r6, r6, #16                 
 210 003a 4446     		mov    r4, r8                      
 211 003c 7443     		mul    r4, r6                      
 212 003e 4B46     		mov    r3, r9                      
 213 0040 5E43     		mul    r6, r3                      
 214 0042 4D46     		mov    r5, r9                      
 215 0044 7D43     		mul    r5, r7                      
 216 0046 4346     		mov    r3, r8                      
 217 0048 5F43     		mul    r7, r3                      
 218 004a 330C     		lsr    r3, r6, #16                 
 219 004c ED18     		add    r5, r5, r3                  
 220 004e 3B0C     		lsr    r3, r7, #16                 
 221 0050 ED18     		add    r5, r5, r3                  
 222 0052 A418     		add    r4, r4, r2                  
 223 0054 0022     		mov    r2, #0                      
 224 0056 5541     		adc    r5, r2                      
 225 0058 3304     		lsl    r3, r6, #16                 
 226 005a E418     		add    r4, r4, r3                  
 227 005c 5541     		adc    r5, r2                      
 228 005e 3B04     		lsl    r3, r7, #16                 
 229 0060 E418     		add    r4, r4, r3                  
 230 0062 5541     		adc    r5, r2                      
 231 0064 0B68     		ldr    r3, [r1]                    
 232 0066 E418     		add    r4, r4, r3                  
 233 0068 6A41     		adc    r2, r5                      
 234 006a 10C1     		stmia  r1!, {r4}                   
 235 006c 40C8     		ldmia  r0!, {r6}                   
 236 006e 370C     		lsr    r7, r6, #16                 
 237 0070 3604     		lsl    r6, r6, #16                 
 238 0072 360C     		lsr    r6, r6, #16                 
 239 0074 4446     		mov    r4, r8                      
 240 0076 7443     		mul    r4, r6                      
 241 0078 4B46     		mov    r3, r9                      
 242 007a 5E43     		mul    r6, r3                      
 243 007c 4D46     		mov    r5, r9                      
 244 007e 7D43     		mul    r5, r7                      
 245 0080 4346     		mov    r3, r8                      
 246 0082 5F43     		mul    r7, r3                      
 247 0084 330C     		lsr    r3, r6, #16                 
 248 0086 ED18     		add    r5, r5, r3                  
 249 0088 3B0C     		lsr    r3, r7, #16                 
 250 008a ED18     		add    r5, r5, r3                  
 251 008c A418     		add    r4, r4, r2                  
 252 008e 0022     		mov    r2, #0                      
 253 0090 5541     		adc    r5, r2                      
 254 0092 3304     		lsl    r3, r6, #16                 
 255 0094 E418     		add    r4, r4, r3                  
 256 0096 5541     		adc    r5, r2                      
 257 0098 3B04     		lsl    r3, r7, #16                 
 258 009a E418     		add    r4, r4, r3                  
 259 009c 5541     		adc    r5, r2                      
 260 009e 0B68     		ldr    r3, [r1]                    
 261 00a0 E418     		add    r4, r4, r3                  
 262 00a2 6A41     		adc    r2, r5                      
 263 00a4 10C1     		stmia  r1!, {r4}                   
 264 00a6 40C8     		ldmia  r0!, {r6}                   
 265 00a8 370C     		lsr    r7, r6, #16                 
 266 00aa 3604     		lsl    r6, r6, #16                 
 267 00ac 360C     		lsr    r6, r6, #16                 
 268 00ae 4446     		mov    r4, r8                      
 269 00b0 7443     		mul    r4, r6                      
 270 00b2 4B46     		mov    r3, r9                      
 271 00b4 5E43     		mul    r6, r3                      
 272 00b6 4D46     		mov    r5, r9                      
 273 00b8 7D43     		mul    r5, r7                      
 274 00ba 4346     		mov    r3, r8                      
 275 00bc 5F43     		mul    r7, r3                      
 276 00be 330C     		lsr    r3, r6, #16                 
 277 00c0 ED18     		add    r5, r5, r3                  
 278 00c2 3B0C     		lsr    r3, r7, #16                 
 279 00c4 ED18     		add    r5, r5, r3                  
 280 00c6 A418     		add    r4, r4, r2                  
 281 00c8 0022     		mov    r2, #0                      
 282 00ca 5541     		adc    r5, r2                      
 283 00cc 3304     		lsl    r3, r6, #16                 
 284 00ce E418     		add    r4, r4, r3                  
 285 00d0 5541     		adc    r5, r2                      
 286 00d2 3B04     		lsl    r3, r7, #16                 
 287 00d4 E418     		add    r4, r4, r3                  
 288 00d6 5541     		adc    r5, r2                      
 289 00d8 0B68     		ldr    r3, [r1]                    
 290 00da E418     		add    r4, r4, r3                  
 291 00dc 6A41     		adc    r2, r5                      
 292 00de 10C1     		stmia  r1!, {r4}                   
 293 00e0 40C8     		ldmia  r0!, {r6}                   
 294 00e2 370C     		lsr    r7, r6, #16                 
 295 00e4 3604     		lsl    r6, r6, #16                 
 296 00e6 360C     		lsr    r6, r6, #16                 
 297 00e8 4446     		mov    r4, r8                      
 298 00ea 7443     		mul    r4, r6                      
 299 00ec 4B46     		mov    r3, r9                      
 300 00ee 5E43     		mul    r6, r3                      
 301 00f0 4D46     		mov    r5, r9                      
 302 00f2 7D43     		mul    r5, r7                      
 303 00f4 4346     		mov    r3, r8                      
 304 00f6 5F43     		mul    r7, r3                      
 305 00f8 330C     		lsr    r3, r6, #16                 
 306 00fa ED18     		add    r5, r5, r3                  
 307 00fc 3B0C     		lsr    r3, r7, #16                 
 308 00fe ED18     		add    r5, r5, r3                  
 309 0100 A418     		add    r4, r4, r2                  
 310 0102 0022     		mov    r2, #0                      
 311 0104 5541     		adc    r5, r2                      
 312 0106 3304     		lsl    r3, r6, #16                 
 313 0108 E418     		add    r4, r4, r3                  
 314 010a 5541     		adc    r5, r2                      
 315 010c 3B04     		lsl    r3, r7, #16                 
 316 010e E418     		add    r4, r4, r3                  
 317 0110 5541     		adc    r5, r2                      
 318 0112 0B68     		ldr    r3, [r1]                    
 319 0114 E418     		add    r4, r4, r3                  
 320 0116 6A41     		adc    r2, r5                      
 321 0118 10C1     		stmia  r1!, {r4}                   
 322 011a 40C8     		ldmia  r0!, {r6}                   
 323 011c 370C     		lsr    r7, r6, #16                 
 324 011e 3604     		lsl    r6, r6, #16                 
 325 0120 360C     		lsr    r6, r6, #16                 
 326 0122 4446     		mov    r4, r8                      
 327 0124 7443     		mul    r4, r6                      
 328 0126 4B46     		mov    r3, r9                      
 329 0128 5E43     		mul    r6, r3                      
 330 012a 4D46     		mov    r5, r9                      
 331 012c 7D43     		mul    r5, r7                      
 332 012e 4346     		mov    r3, r8                      
 333 0130 5F43     		mul    r7, r3                      
 334 0132 330C     		lsr    r3, r6, #16                 
 335 0134 ED18     		add    r5, r5, r3                  
 336 0136 3B0C     		lsr    r3, r7, #16                 
 337 0138 ED18     		add    r5, r5, r3                  
 338 013a A418     		add    r4, r4, r2                  
 339 013c 0022     		mov    r2, #0                      
 340 013e 5541     		adc    r5, r2                      
 341 0140 3304     		lsl    r3, r6, #16                 
 342 0142 E418     		add    r4, r4, r3                  
 343 0144 5541     		adc    r5, r2                      
 344 0146 3B04     		lsl    r3, r7, #16                 
 345 0148 E418     		add    r4, r4, r3                  
 346 014a 5541     		adc    r5, r2                      
 347 014c 0B68     		ldr    r3, [r1]                    
 348 014e E418     		add    r4, r4, r3                  
 349 0150 6A41     		adc    r2, r5                      
 350 0152 10C1     		stmia  r1!, {r4}                   
 351 0154 40C8     		ldmia  r0!, {r6}                   
 352 0156 370C     		lsr    r7, r6, #16                 
 353 0158 3604     		lsl    r6, r6, #16                 
 354 015a 360C     		lsr    r6, r6, #16                 
 355 015c 4446     		mov    r4, r8                      
 356 015e 7443     		mul    r4, r6                      
 357 0160 4B46     		mov    r3, r9                      
 358 0162 5E43     		mul    r6, r3                      
 359 0164 4D46     		mov    r5, r9                      
 360 0166 7D43     		mul    r5, r7                      
 361 0168 4346     		mov    r3, r8                      
 362 016a 5F43     		mul    r7, r3                      
 363 016c 330C     		lsr    r3, r6, #16                 
 364 016e ED18     		add    r5, r5, r3                  
 365 0170 3B0C     		lsr    r3, r7, #16                 
 366 0172 ED18     		add    r5, r5, r3                  
 367 0174 A418     		add    r4, r4, r2                  
 368 0176 0022     		mov    r2, #0                      
 369 0178 5541     		adc    r5, r2                      
 370 017a 3304     		lsl    r3, r6, #16                 
 371 017c E418     		add    r4, r4, r3                  
 372 017e 5541     		adc    r5, r2                      
 373 0180 3B04     		lsl    r3, r7, #16                 
 374 0182 E418     		add    r4, r4, r3                  
 375 0184 5541     		adc    r5, r2                      
 376 0186 0B68     		ldr    r3, [r1]                    
 377 0188 E418     		add    r4, r4, r3                  
 378 018a 6A41     		adc    r2, r5                      
 379 018c 10C1     		stmia  r1!, {r4}                   
 380 018e 40C8     		ldmia  r0!, {r6}                   
 381 0190 370C     		lsr    r7, r6, #16                 
 382 0192 3604     		lsl    r6, r6, #16                 
 383 0194 360C     		lsr    r6, r6, #16                 
 384 0196 4446     		mov    r4, r8                      
 385 0198 7443     		mul    r4, r6                      
 386 019a 4B46     		mov    r3, r9                      
 387 019c 5E43     		mul    r6, r3                      
 388 019e 4D46     		mov    r5, r9                      
 389 01a0 7D43     		mul    r5, r7                      
 390 01a2 4346     		mov    r3, r8                      
 391 01a4 5F43     		mul    r7, r3                      
 392 01a6 330C     		lsr    r3, r6, #16                 
 393 01a8 ED18     		add    r5, r5, r3                  
 394 01aa 3B0C     		lsr    r3, r7, #16                 
 395 01ac ED18     		add    r5, r5, r3                  
 396 01ae A418     		add    r4, r4, r2                  
 397 01b0 0022     		mov    r2, #0                      
 398 01b2 5541     		adc    r5, r2                      
 399 01b4 3304     		lsl    r3, r6, #16                 
 400 01b6 E418     		add    r4, r4, r3                  
 401 01b8 5541     		adc    r5, r2                      
 402 01ba 3B04     		lsl    r3, r7, #16                 
 403 01bc E418     		add    r4, r4, r3                  
 404 01be 5541     		adc    r5, r2                      
 405 01c0 0B68     		ldr    r3, [r1]                    
 406 01c2 E418     		add    r4, r4, r3                  
 407 01c4 6A41     		adc    r2, r5                      
 408 01c6 10C1     		stmia  r1!, {r4}                   
 409 01c8 40C8     		ldmia  r0!, {r6}                   
 410 01ca 370C     		lsr    r7, r6, #16                 
 411 01cc 3604     		lsl    r6, r6, #16                 
 412 01ce 360C     		lsr    r6, r6, #16                 
 413 01d0 4446     		mov    r4, r8                      
 414 01d2 7443     		mul    r4, r6                      
 415 01d4 4B46     		mov    r3, r9                      
 416 01d6 5E43     		mul    r6, r3                      
 417 01d8 4D46     		mov    r5, r9                      
 418 01da 7D43     		mul    r5, r7                      
 419 01dc 4346     		mov    r3, r8                      
 420 01de 5F43     		mul    r7, r3                      
 421 01e0 330C     		lsr    r3, r6, #16                 
 422 01e2 ED18     		add    r5, r5, r3                  
 423 01e4 3B0C     		lsr    r3, r7, #16                 
 424 01e6 ED18     		add    r5, r5, r3                  
 425 01e8 A418     		add    r4, r4, r2                  
 426 01ea 0022     		mov    r2, #0                      
 427 01ec 5541     		adc    r5, r2                      
 428 01ee 3304     		lsl    r3, r6, #16                 
 429 01f0 E418     		add    r4, r4, r3                  
 430 01f2 5541     		adc    r5, r2                      
 431 01f4 3B04     		lsl    r3, r7, #16                 
 432 01f6 E418     		add    r4, r4, r3                  
 433 01f8 5541     		adc    r5, r2                      
 434 01fa 0B68     		ldr    r3, [r1]                    
 435 01fc E418     		add    r4, r4, r3                  
 436 01fe 6A41     		adc    r2, r5                      
 437 0200 10C1     		stmia  r1!, {r4}                   
 438 0202 40C8     		ldmia  r0!, {r6}                   
 439 0204 370C     		lsr    r7, r6, #16                 
 440 0206 3604     		lsl    r6, r6, #16                 
 441 0208 360C     		lsr    r6, r6, #16                 
 442 020a 4446     		mov    r4, r8                      
 443 020c 7443     		mul    r4, r6                      
 444 020e 4B46     		mov    r3, r9                      
 445 0210 5E43     		mul    r6, r3                      
 446 0212 4D46     		mov    r5, r9                      
 447 0214 7D43     		mul    r5, r7                      
 448 0216 4346     		mov    r3, r8                      
 449 0218 5F43     		mul    r7, r3                      
 450 021a 330C     		lsr    r3, r6, #16                 
 451 021c ED18     		add    r5, r5, r3                  
 452 021e 3B0C     		lsr    r3, r7, #16                 
 453 0220 ED18     		add    r5, r5, r3                  
 454 0222 A418     		add    r4, r4, r2                  
 455 0224 0022     		mov    r2, #0                      
 456 0226 5541     		adc    r5, r2                      
 457 0228 3304     		lsl    r3, r6, #16                 
 458 022a E418     		add    r4, r4, r3                  
 459 022c 5541     		adc    r5, r2                      
 460 022e 3B04     		lsl    r3, r7, #16                 
 461 0230 E418     		add    r4, r4, r3                  
 462 0232 5541     		adc    r5, r2                      
 463 0234 0B68     		ldr    r3, [r1]                    
 464 0236 E418     		add    r4, r4, r3                  
 465 0238 6A41     		adc    r2, r5                      
 466 023a 10C1     		stmia  r1!, {r4}                   
 467 023c 40C8     		ldmia  r0!, {r6}                   
 468 023e 370C     		lsr    r7, r6, #16                 
 469 0240 3604     		lsl    r6, r6, #16                 
 470 0242 360C     		lsr    r6, r6, #16                 
 471 0244 4446     		mov    r4, r8                      
 472 0246 7443     		mul    r4, r6                      
 473 0248 4B46     		mov    r3, r9                      
 474 024a 5E43     		mul    r6, r3                      
 475 024c 4D46     		mov    r5, r9                      
 476 024e 7D43     		mul    r5, r7                      
 477 0250 4346     		mov    r3, r8                      
 478 0252 5F43     		mul    r7, r3                      
 479 0254 330C     		lsr    r3, r6, #16                 
 480 0256 ED18     		add    r5, r5, r3                  
 481 0258 3B0C     		lsr    r3, r7, #16                 
 482 025a ED18     		add    r5, r5, r3                  
 483 025c A418     		add    r4, r4, r2                  
 484 025e 0022     		mov    r2, #0                      
 485 0260 5541     		adc    r5, r2                      
 486 0262 3304     		lsl    r3, r6, #16                 
 487 0264 E418     		add    r4, r4, r3                  
 488 0266 5541     		adc    r5, r2                      
 489 0268 3B04     		lsl    r3, r7, #16                 
 490 026a E418     		add    r4, r4, r3                  
 491 026c 5541     		adc    r5, r2                      
 492 026e 0B68     		ldr    r3, [r1]                    
 493 0270 E418     		add    r4, r4, r3                  
 494 0272 6A41     		adc    r2, r5                      
 495 0274 10C1     		stmia  r1!, {r4}                   
 496 0276 40C8     		ldmia  r0!, {r6}                   
 497 0278 370C     		lsr    r7, r6, #16                 
 498 027a 3604     		lsl    r6, r6, #16                 
 499 027c 360C     		lsr    r6, r6, #16                 
 500 027e 4446     		mov    r4, r8                      
 501 0280 7443     		mul    r4, r6                      
 502 0282 4B46     		mov    r3, r9                      
 503 0284 5E43     		mul    r6, r3                      
 504 0286 4D46     		mov    r5, r9                      
 505 0288 7D43     		mul    r5, r7                      
 506 028a 4346     		mov    r3, r8                      
 507 028c 5F43     		mul    r7, r3                      
 508 028e 330C     		lsr    r3, r6, #16                 
 509 0290 ED18     		add    r5, r5, r3                  
 510 0292 3B0C     		lsr    r3, r7, #16                 
 511 0294 ED18     		add    r5, r5, r3                  
 512 0296 A418     		add    r4, r4, r2                  
 513 0298 0022     		mov    r2, #0                      
 514 029a 5541     		adc    r5, r2                      
 515 029c 3304     		lsl    r3, r6, #16                 
 516 029e E418     		add    r4, r4, r3                  
 517 02a0 5541     		adc    r5, r2                      
 518 02a2 3B04     		lsl    r3, r7, #16                 
 519 02a4 E418     		add    r4, r4, r3                  
 520 02a6 5541     		adc    r5, r2                      
 521 02a8 0B68     		ldr    r3, [r1]                    
 522 02aa E418     		add    r4, r4, r3                  
 523 02ac 6A41     		adc    r2, r5                      
 524 02ae 10C1     		stmia  r1!, {r4}                   
 525 02b0 40C8     		ldmia  r0!, {r6}                   
 526 02b2 370C     		lsr    r7, r6, #16                 
 527 02b4 3604     		lsl    r6, r6, #16                 
 528 02b6 360C     		lsr    r6, r6, #16                 
 529 02b8 4446     		mov    r4, r8                      
 530 02ba 7443     		mul    r4, r6                      
 531 02bc 4B46     		mov    r3, r9                      
 532 02be 5E43     		mul    r6, r3                      
 533 02c0 4D46     		mov    r5, r9                      
 534 02c2 7D43     		mul    r5, r7                      
 535 02c4 4346     		mov    r3, r8                      
 536 02c6 5F43     		mul    r7, r3                      
 537 02c8 330C     		lsr    r3, r6, #16                 
 538 02ca ED18     		add    r5, r5, r3                  
 539 02cc 3B0C     		lsr    r3, r7, #16                 
 540 02ce ED18     		add    r5, r5, r3                  
 541 02d0 A418     		add    r4, r4, r2                  
 542 02d2 0022     		mov    r2, #0                      
 543 02d4 5541     		adc    r5, r2                      
 544 02d6 3304     		lsl    r3, r6, #16                 
 545 02d8 E418     		add    r4, r4, r3                  
 546 02da 5541     		adc    r5, r2                      
 547 02dc 3B04     		lsl    r3, r7, #16                 
 548 02de E418     		add    r4, r4, r3                  
 549 02e0 5541     		adc    r5, r2                      
 550 02e2 0B68     		ldr    r3, [r1]                    
 551 02e4 E418     		add    r4, r4, r3                  
 552 02e6 6A41     		adc    r2, r5                      
 553 02e8 10C1     		stmia  r1!, {r4}                   
 554 02ea 40C8     		ldmia  r0!, {r6}                   
 555 02ec 370C     		lsr    r7, r6, #16                 
 556 02ee 3604     		lsl    r6, r6, #16                 
 557 02f0 360C     		lsr    r6, r6, #16                 
 558 02f2 4446     		mov    r4, r8                      
 559 02f4 7443     		mul    r4, r6                      
 560 02f6 4B46     		mov    r3, r9                      
 561 02f8 5E43     		mul    r6, r3                      
 562 02fa 4D46     		mov    r5, r9                      
 563 02fc 7D43     		mul    r5, r7                      
 564 02fe 4346     		mov    r3, r8                      
 565 0300 5F43     		mul    r7, r3                      
 566 0302 330C     		lsr    r3, r6, #16                 
 567 0304 ED18     		add    r5, r5, r3                  
 568 0306 3B0C     		lsr    r3, r7, #16                 
 569 0308 ED18     		add    r5, r5, r3                  
 570 030a A418     		add    r4, r4, r2                  
 571 030c 0022     		mov    r2, #0                      
 572 030e 5541     		adc    r5, r2                      
 573 0310 3304     		lsl    r3, r6, #16                 
 574 0312 E418     		add    r4, r4, r3                  
 575 0314 5541     		adc    r5, r2                      
 576 0316 3B04     		lsl    r3, r7, #16                 
 577 0318 E418     		add    r4, r4, r3                  
 578 031a 5541     		adc    r5, r2                      
 579 031c 0B68     		ldr    r3, [r1]                    
 580 031e E418     		add    r4, r4, r3                  
 581 0320 6A41     		adc    r2, r5                      
 582 0322 10C1     		stmia  r1!, {r4}                   
 583 0324 40C8     		ldmia  r0!, {r6}                   
 584 0326 370C     		lsr    r7, r6, #16                 
 585 0328 3604     		lsl    r6, r6, #16                 
 586 032a 360C     		lsr    r6, r6, #16                 
 587 032c 4446     		mov    r4, r8                      
 588 032e 7443     		mul    r4, r6                      
 589 0330 4B46     		mov    r3, r9                      
 590 0332 5E43     		mul    r6, r3                      
 591 0334 4D46     		mov    r5, r9                      
 592 0336 7D43     		mul    r5, r7                      
 593 0338 4346     		mov    r3, r8                      
 594 033a 5F43     		mul    r7, r3                      
 595 033c 330C     		lsr    r3, r6, #16                 
 596 033e ED18     		add    r5, r5, r3                  
 597 0340 3B0C     		lsr    r3, r7, #16                 
 598 0342 ED18     		add    r5, r5, r3                  
 599 0344 A418     		add    r4, r4, r2                  
 600 0346 0022     		mov    r2, #0                      
 601 0348 5541     		adc    r5, r2                      
 602 034a 3304     		lsl    r3, r6, #16                 
 603 034c E418     		add    r4, r4, r3                  
 604 034e 5541     		adc    r5, r2                      
 605 0350 3B04     		lsl    r3, r7, #16                 
 606 0352 E418     		add    r4, r4, r3                  
 607 0354 5541     		adc    r5, r2                      
 608 0356 0B68     		ldr    r3, [r1]                    
 609 0358 E418     		add    r4, r4, r3                  
 610 035a 6A41     		adc    r2, r5                      
 611 035c 10C1     		stmia  r1!, {r4}                   
 612 035e 40C8     		ldmia  r0!, {r6}                   
 613 0360 370C     		lsr    r7, r6, #16                 
 614 0362 3604     		lsl    r6, r6, #16                 
 615 0364 360C     		lsr    r6, r6, #16                 
 616 0366 4446     		mov    r4, r8                      
 617 0368 7443     		mul    r4, r6                      
 618 036a 4B46     		mov    r3, r9                      
 619 036c 5E43     		mul    r6, r3                      
 620 036e 4D46     		mov    r5, r9                      
 621 0370 7D43     		mul    r5, r7                      
 622 0372 4346     		mov    r3, r8                      
 623 0374 5F43     		mul    r7, r3                      
 624 0376 330C     		lsr    r3, r6, #16                 
 625 0378 ED18     		add    r5, r5, r3                  
 626 037a 3B0C     		lsr    r3, r7, #16                 
 627 037c ED18     		add    r5, r5, r3                  
 628 037e A418     		add    r4, r4, r2                  
 629 0380 0022     		mov    r2, #0                      
 630 0382 5541     		adc    r5, r2                      
 631 0384 3304     		lsl    r3, r6, #16                 
 632 0386 E418     		add    r4, r4, r3                  
 633 0388 5541     		adc    r5, r2                      
 634 038a 3B04     		lsl    r3, r7, #16                 
 635 038c E418     		add    r4, r4, r3                  
 636 038e 5541     		adc    r5, r2                      
 637 0390 0B68     		ldr    r3, [r1]                    
 638 0392 E418     		add    r4, r4, r3                  
 639 0394 6A41     		adc    r2, r5                      
 640 0396 10C1     		stmia  r1!, {r4}                   
 641 0398 40C8     		ldmia  r0!, {r6}                   
 642 039a 370C     		lsr    r7, r6, #16                 
 643 039c 3604     		lsl    r6, r6, #16                 
 644 039e 360C     		lsr    r6, r6, #16                 
 645 03a0 4446     		mov    r4, r8                      
 646 03a2 7443     		mul    r4, r6                      
 647 03a4 4B46     		mov    r3, r9                      
 648 03a6 5E43     		mul    r6, r3                      
 649 03a8 4D46     		mov    r5, r9                      
 650 03aa 7D43     		mul    r5, r7                      
 651 03ac 4346     		mov    r3, r8                      
 652 03ae 5F43     		mul    r7, r3                      
 653 03b0 330C     		lsr    r3, r6, #16                 
 654 03b2 ED18     		add    r5, r5, r3                  
 655 03b4 3B0C     		lsr    r3, r7, #16                 
 656 03b6 ED18     		add    r5, r5, r3                  
 657 03b8 A418     		add    r4, r4, r2                  
 658 03ba 0022     		mov    r2, #0                      
 659 03bc 5541     		adc    r5, r2                      
 660 03be 3304     		lsl    r3, r6, #16                 
 661 03c0 E418     		add    r4, r4, r3                  
 662 03c2 5541     		adc    r5, r2                      
 663 03c4 3B04     		lsl    r3, r7, #16                 
 664 03c6 E418     		add    r4, r4, r3                  
 665 03c8 5541     		adc    r5, r2                      
 666 03ca 0B68     		ldr    r3, [r1]                    
 667 03cc E418     		add    r4, r4, r3                  
 668 03ce 6A41     		adc    r2, r5                      
 669 03d0 10C1     		stmia  r1!, {r4}                   
 670 03d2 0592     		str    r2, [sp, #20]                      
 671 03d4 0291     		str    r1, [sp, #8]                      
 672 03d6 0390     		str    r0, [sp, #12]                      
 673              		
 674              	@ 0 "" 2
1128:.././crypto/mbedtls//library/bignum.c ****     {
 675              		.loc 1 1128 21 discriminator 2 view .LVU50
1128:.././crypto/mbedtls//library/bignum.c ****     {
 676              		.loc 1 1128 23 is_stmt 0 discriminator 2 view .LVU51
 677              		.thumb
 678              		.syntax unified
 679 03d8 1023     		movs	r3, #16
 680 03da 5B42     		rsbs	r3, r3, #0
 681 03dc 9846     		mov	r8, r3
 682 03de C244     		add	r10, r10, r8
 683              	.LVL19:
1128:.././crypto/mbedtls//library/bignum.c ****     {
 684              		.loc 1 1128 12 is_stmt 1 discriminator 2 view .LVU52
1128:.././crypto/mbedtls//library/bignum.c ****     {
 685              		.loc 1 1128 5 is_stmt 0 discriminator 2 view .LVU53
 686 03e0 5346     		mov	r3, r10
 687 03e2 0F2B     		cmp	r3, #15
 688 03e4 00D9     		bls	.LCB190
 689 03e6 1BE6     		b	.L17	@long jump
 690              	.LCB190:
 691 03e8 6246     		mov	r2, ip
 692 03ea 0F23     		movs	r3, #15
 693 03ec 1A40     		ands	r2, r3
 694 03ee 9446     		mov	ip, r2
 695              	.LVL20:
 696              	.L16:
1131:.././crypto/mbedtls//library/bignum.c ****         MULADDC_CORE   MULADDC_CORE
1132:.././crypto/mbedtls//library/bignum.c ****         MULADDC_CORE   MULADDC_CORE
1133:.././crypto/mbedtls//library/bignum.c ****         MULADDC_CORE   MULADDC_CORE
1134:.././crypto/mbedtls//library/bignum.c ****         MULADDC_CORE   MULADDC_CORE
1135:.././crypto/mbedtls//library/bignum.c **** 
1136:.././crypto/mbedtls//library/bignum.c ****         MULADDC_CORE   MULADDC_CORE
1137:.././crypto/mbedtls//library/bignum.c ****         MULADDC_CORE   MULADDC_CORE
1138:.././crypto/mbedtls//library/bignum.c ****         MULADDC_CORE   MULADDC_CORE
1139:.././crypto/mbedtls//library/bignum.c ****         MULADDC_CORE   MULADDC_CORE
1140:.././crypto/mbedtls//library/bignum.c ****         MULADDC_STOP
1141:.././crypto/mbedtls//library/bignum.c ****     }
1142:.././crypto/mbedtls//library/bignum.c **** 
1143:.././crypto/mbedtls//library/bignum.c ****     for( ; i >= 8; i -= 8 )
 697              		.loc 1 1143 12 is_stmt 1 view .LVU54
 698              		.loc 1 1143 5 is_stmt 0 view .LVU55
 699 03f0 6346     		mov	r3, ip
 700 03f2 072B     		cmp	r3, #7
 701 03f4 00D8     		bhi	.LCB202
 702 03f6 22E1     		b	.L18	@long jump
 703              	.LCB202:
1144:.././crypto/mbedtls//library/bignum.c ****     {
1145:.././crypto/mbedtls//library/bignum.c ****         MULADDC_INIT
 704              		.loc 1 1145 9 is_stmt 1 discriminator 2 view .LVU56
 705              		.syntax divided
 706              	@ 1145 ".././crypto/mbedtls//library/bignum.c" 1
 707 03f8 0398     		ldr    r0, [sp, #12]                      
 708 03fa 0299     		ldr    r1, [sp, #8]                      
 709 03fc 059A     		ldr    r2, [sp, #20]                      
 710 03fe 019B     		ldr    r3, [sp, #4]                      
 711 0400 1F0C     		lsr    r7, r3, #16                 
 712 0402 B946     		mov    r9, r7                      
 713 0404 1F04     		lsl    r7, r3, #16                 
 714 0406 3F0C     		lsr    r7, r7, #16                 
 715 0408 B846     		mov    r8, r7                      
 716 040a 40C8     		ldmia  r0!, {r6}                   
 717 040c 370C     		lsr    r7, r6, #16                 
 718 040e 3604     		lsl    r6, r6, #16                 
 719 0410 360C     		lsr    r6, r6, #16                 
 720 0412 4446     		mov    r4, r8                      
 721 0414 7443     		mul    r4, r6                      
 722 0416 4B46     		mov    r3, r9                      
 723 0418 5E43     		mul    r6, r3                      
 724 041a 4D46     		mov    r5, r9                      
 725 041c 7D43     		mul    r5, r7                      
 726 041e 4346     		mov    r3, r8                      
 727 0420 5F43     		mul    r7, r3                      
 728 0422 330C     		lsr    r3, r6, #16                 
 729 0424 ED18     		add    r5, r5, r3                  
 730 0426 3B0C     		lsr    r3, r7, #16                 
 731 0428 ED18     		add    r5, r5, r3                  
 732 042a A418     		add    r4, r4, r2                  
 733 042c 0022     		mov    r2, #0                      
 734 042e 5541     		adc    r5, r2                      
 735 0430 3304     		lsl    r3, r6, #16                 
 736 0432 E418     		add    r4, r4, r3                  
 737 0434 5541     		adc    r5, r2                      
 738 0436 3B04     		lsl    r3, r7, #16                 
 739 0438 E418     		add    r4, r4, r3                  
 740 043a 5541     		adc    r5, r2                      
 741 043c 0B68     		ldr    r3, [r1]                    
 742 043e E418     		add    r4, r4, r3                  
 743 0440 6A41     		adc    r2, r5                      
 744 0442 10C1     		stmia  r1!, {r4}                   
 745 0444 40C8     		ldmia  r0!, {r6}                   
 746 0446 370C     		lsr    r7, r6, #16                 
 747 0448 3604     		lsl    r6, r6, #16                 
 748 044a 360C     		lsr    r6, r6, #16                 
 749 044c 4446     		mov    r4, r8                      
 750 044e 7443     		mul    r4, r6                      
 751 0450 4B46     		mov    r3, r9                      
 752 0452 5E43     		mul    r6, r3                      
 753 0454 4D46     		mov    r5, r9                      
 754 0456 7D43     		mul    r5, r7                      
 755 0458 4346     		mov    r3, r8                      
 756 045a 5F43     		mul    r7, r3                      
 757 045c 330C     		lsr    r3, r6, #16                 
 758 045e ED18     		add    r5, r5, r3                  
 759 0460 3B0C     		lsr    r3, r7, #16                 
 760 0462 ED18     		add    r5, r5, r3                  
 761 0464 A418     		add    r4, r4, r2                  
 762 0466 0022     		mov    r2, #0                      
 763 0468 5541     		adc    r5, r2                      
 764 046a 3304     		lsl    r3, r6, #16                 
 765 046c E418     		add    r4, r4, r3                  
 766 046e 5541     		adc    r5, r2                      
 767 0470 3B04     		lsl    r3, r7, #16                 
 768 0472 E418     		add    r4, r4, r3                  
 769 0474 5541     		adc    r5, r2                      
 770 0476 0B68     		ldr    r3, [r1]                    
 771 0478 E418     		add    r4, r4, r3                  
 772 047a 6A41     		adc    r2, r5                      
 773 047c 10C1     		stmia  r1!, {r4}                   
 774 047e 40C8     		ldmia  r0!, {r6}                   
 775 0480 370C     		lsr    r7, r6, #16                 
 776 0482 3604     		lsl    r6, r6, #16                 
 777 0484 360C     		lsr    r6, r6, #16                 
 778 0486 4446     		mov    r4, r8                      
 779 0488 7443     		mul    r4, r6                      
 780 048a 4B46     		mov    r3, r9                      
 781 048c 5E43     		mul    r6, r3                      
 782 048e 4D46     		mov    r5, r9                      
 783 0490 7D43     		mul    r5, r7                      
 784 0492 4346     		mov    r3, r8                      
 785 0494 5F43     		mul    r7, r3                      
 786 0496 330C     		lsr    r3, r6, #16                 
 787 0498 ED18     		add    r5, r5, r3                  
 788 049a 3B0C     		lsr    r3, r7, #16                 
 789 049c ED18     		add    r5, r5, r3                  
 790 049e A418     		add    r4, r4, r2                  
 791 04a0 0022     		mov    r2, #0                      
 792 04a2 5541     		adc    r5, r2                      
 793 04a4 3304     		lsl    r3, r6, #16                 
 794 04a6 E418     		add    r4, r4, r3                  
 795 04a8 5541     		adc    r5, r2                      
 796 04aa 3B04     		lsl    r3, r7, #16                 
 797 04ac E418     		add    r4, r4, r3                  
 798 04ae 5541     		adc    r5, r2                      
 799 04b0 0B68     		ldr    r3, [r1]                    
 800 04b2 E418     		add    r4, r4, r3                  
 801 04b4 6A41     		adc    r2, r5                      
 802 04b6 10C1     		stmia  r1!, {r4}                   
 803 04b8 40C8     		ldmia  r0!, {r6}                   
 804 04ba 370C     		lsr    r7, r6, #16                 
 805 04bc 3604     		lsl    r6, r6, #16                 
 806 04be 360C     		lsr    r6, r6, #16                 
 807 04c0 4446     		mov    r4, r8                      
 808 04c2 7443     		mul    r4, r6                      
 809 04c4 4B46     		mov    r3, r9                      
 810 04c6 5E43     		mul    r6, r3                      
 811 04c8 4D46     		mov    r5, r9                      
 812 04ca 7D43     		mul    r5, r7                      
 813 04cc 4346     		mov    r3, r8                      
 814 04ce 5F43     		mul    r7, r3                      
 815 04d0 330C     		lsr    r3, r6, #16                 
 816 04d2 ED18     		add    r5, r5, r3                  
 817 04d4 3B0C     		lsr    r3, r7, #16                 
 818 04d6 ED18     		add    r5, r5, r3                  
 819 04d8 A418     		add    r4, r4, r2                  
 820 04da 0022     		mov    r2, #0                      
 821 04dc 5541     		adc    r5, r2                      
 822 04de 3304     		lsl    r3, r6, #16                 
 823 04e0 E418     		add    r4, r4, r3                  
 824 04e2 5541     		adc    r5, r2                      
 825 04e4 3B04     		lsl    r3, r7, #16                 
 826 04e6 E418     		add    r4, r4, r3                  
 827 04e8 5541     		adc    r5, r2                      
 828 04ea 0B68     		ldr    r3, [r1]                    
 829 04ec E418     		add    r4, r4, r3                  
 830 04ee 6A41     		adc    r2, r5                      
 831 04f0 10C1     		stmia  r1!, {r4}                   
 832 04f2 40C8     		ldmia  r0!, {r6}                   
 833 04f4 370C     		lsr    r7, r6, #16                 
 834 04f6 3604     		lsl    r6, r6, #16                 
 835 04f8 360C     		lsr    r6, r6, #16                 
 836 04fa 4446     		mov    r4, r8                      
 837 04fc 7443     		mul    r4, r6                      
 838 04fe 4B46     		mov    r3, r9                      
 839 0500 5E43     		mul    r6, r3                      
 840 0502 4D46     		mov    r5, r9                      
 841 0504 7D43     		mul    r5, r7                      
 842 0506 4346     		mov    r3, r8                      
 843 0508 5F43     		mul    r7, r3                      
 844 050a 330C     		lsr    r3, r6, #16                 
 845 050c ED18     		add    r5, r5, r3                  
 846 050e 3B0C     		lsr    r3, r7, #16                 
 847 0510 ED18     		add    r5, r5, r3                  
 848 0512 A418     		add    r4, r4, r2                  
 849 0514 0022     		mov    r2, #0                      
 850 0516 5541     		adc    r5, r2                      
 851 0518 3304     		lsl    r3, r6, #16                 
 852 051a E418     		add    r4, r4, r3                  
 853 051c 5541     		adc    r5, r2                      
 854 051e 3B04     		lsl    r3, r7, #16                 
 855 0520 E418     		add    r4, r4, r3                  
 856 0522 5541     		adc    r5, r2                      
 857 0524 0B68     		ldr    r3, [r1]                    
 858 0526 E418     		add    r4, r4, r3                  
 859 0528 6A41     		adc    r2, r5                      
 860 052a 10C1     		stmia  r1!, {r4}                   
 861 052c 40C8     		ldmia  r0!, {r6}                   
 862 052e 370C     		lsr    r7, r6, #16                 
 863 0530 3604     		lsl    r6, r6, #16                 
 864 0532 360C     		lsr    r6, r6, #16                 
 865 0534 4446     		mov    r4, r8                      
 866 0536 7443     		mul    r4, r6                      
 867 0538 4B46     		mov    r3, r9                      
 868 053a 5E43     		mul    r6, r3                      
 869 053c 4D46     		mov    r5, r9                      
 870 053e 7D43     		mul    r5, r7                      
 871 0540 4346     		mov    r3, r8                      
 872 0542 5F43     		mul    r7, r3                      
 873 0544 330C     		lsr    r3, r6, #16                 
 874 0546 ED18     		add    r5, r5, r3                  
 875 0548 3B0C     		lsr    r3, r7, #16                 
 876 054a ED18     		add    r5, r5, r3                  
 877 054c A418     		add    r4, r4, r2                  
 878 054e 0022     		mov    r2, #0                      
 879 0550 5541     		adc    r5, r2                      
 880 0552 3304     		lsl    r3, r6, #16                 
 881 0554 E418     		add    r4, r4, r3                  
 882 0556 5541     		adc    r5, r2                      
 883 0558 3B04     		lsl    r3, r7, #16                 
 884 055a E418     		add    r4, r4, r3                  
 885 055c 5541     		adc    r5, r2                      
 886 055e 0B68     		ldr    r3, [r1]                    
 887 0560 E418     		add    r4, r4, r3                  
 888 0562 6A41     		adc    r2, r5                      
 889 0564 10C1     		stmia  r1!, {r4}                   
 890 0566 40C8     		ldmia  r0!, {r6}                   
 891 0568 370C     		lsr    r7, r6, #16                 
 892 056a 3604     		lsl    r6, r6, #16                 
 893 056c 360C     		lsr    r6, r6, #16                 
 894 056e 4446     		mov    r4, r8                      
 895 0570 7443     		mul    r4, r6                      
 896 0572 4B46     		mov    r3, r9                      
 897 0574 5E43     		mul    r6, r3                      
 898 0576 4D46     		mov    r5, r9                      
 899 0578 7D43     		mul    r5, r7                      
 900 057a 4346     		mov    r3, r8                      
 901 057c 5F43     		mul    r7, r3                      
 902 057e 330C     		lsr    r3, r6, #16                 
 903 0580 ED18     		add    r5, r5, r3                  
 904 0582 3B0C     		lsr    r3, r7, #16                 
 905 0584 ED18     		add    r5, r5, r3                  
 906 0586 A418     		add    r4, r4, r2                  
 907 0588 0022     		mov    r2, #0                      
 908 058a 5541     		adc    r5, r2                      
 909 058c 3304     		lsl    r3, r6, #16                 
 910 058e E418     		add    r4, r4, r3                  
 911 0590 5541     		adc    r5, r2                      
 912 0592 3B04     		lsl    r3, r7, #16                 
 913 0594 E418     		add    r4, r4, r3                  
 914 0596 5541     		adc    r5, r2                      
 915 0598 0B68     		ldr    r3, [r1]                    
 916 059a E418     		add    r4, r4, r3                  
 917 059c 6A41     		adc    r2, r5                      
 918 059e 10C1     		stmia  r1!, {r4}                   
 919 05a0 40C8     		ldmia  r0!, {r6}                   
 920 05a2 370C     		lsr    r7, r6, #16                 
 921 05a4 3604     		lsl    r6, r6, #16                 
 922 05a6 360C     		lsr    r6, r6, #16                 
 923 05a8 4446     		mov    r4, r8                      
 924 05aa 7443     		mul    r4, r6                      
 925 05ac 4B46     		mov    r3, r9                      
 926 05ae 5E43     		mul    r6, r3                      
 927 05b0 4D46     		mov    r5, r9                      
 928 05b2 7D43     		mul    r5, r7                      
 929 05b4 4346     		mov    r3, r8                      
 930 05b6 5F43     		mul    r7, r3                      
 931 05b8 330C     		lsr    r3, r6, #16                 
 932 05ba ED18     		add    r5, r5, r3                  
 933 05bc 3B0C     		lsr    r3, r7, #16                 
 934 05be ED18     		add    r5, r5, r3                  
 935 05c0 A418     		add    r4, r4, r2                  
 936 05c2 0022     		mov    r2, #0                      
 937 05c4 5541     		adc    r5, r2                      
 938 05c6 3304     		lsl    r3, r6, #16                 
 939 05c8 E418     		add    r4, r4, r3                  
 940 05ca 5541     		adc    r5, r2                      
 941 05cc 3B04     		lsl    r3, r7, #16                 
 942 05ce E418     		add    r4, r4, r3                  
 943 05d0 5541     		adc    r5, r2                      
 944 05d2 0B68     		ldr    r3, [r1]                    
 945 05d4 E418     		add    r4, r4, r3                  
 946 05d6 6A41     		adc    r2, r5                      
 947 05d8 10C1     		stmia  r1!, {r4}                   
 948 05da 0592     		str    r2, [sp, #20]                      
 949 05dc 0291     		str    r1, [sp, #8]                      
 950 05de 0390     		str    r0, [sp, #12]                      
 951              		
 952              	@ 0 "" 2
1143:.././crypto/mbedtls//library/bignum.c ****     {
 953              		.loc 1 1143 20 discriminator 2 view .LVU57
1143:.././crypto/mbedtls//library/bignum.c ****     {
 954              		.loc 1 1143 22 is_stmt 0 discriminator 2 view .LVU58
 955              		.thumb
 956              		.syntax unified
 957 05e0 0823     		movs	r3, #8
 958 05e2 29E0     		b	.L27
 959              	.LVL21:
 960              	.L19:
1146:.././crypto/mbedtls//library/bignum.c ****         MULADDC_CORE   MULADDC_CORE
1147:.././crypto/mbedtls//library/bignum.c ****         MULADDC_CORE   MULADDC_CORE
1148:.././crypto/mbedtls//library/bignum.c **** 
1149:.././crypto/mbedtls//library/bignum.c ****         MULADDC_CORE   MULADDC_CORE
1150:.././crypto/mbedtls//library/bignum.c ****         MULADDC_CORE   MULADDC_CORE
1151:.././crypto/mbedtls//library/bignum.c ****         MULADDC_STOP
1152:.././crypto/mbedtls//library/bignum.c ****     }
1153:.././crypto/mbedtls//library/bignum.c **** 
1154:.././crypto/mbedtls//library/bignum.c ****     for( ; i > 0; i-- )
1155:.././crypto/mbedtls//library/bignum.c ****     {
1156:.././crypto/mbedtls//library/bignum.c ****         MULADDC_INIT
 961              		.loc 1 1156 9 is_stmt 1 discriminator 2 view .LVU59
 962              		.syntax divided
 963              	@ 1156 ".././crypto/mbedtls//library/bignum.c" 1
 964 05e4 0398     		ldr    r0, [sp, #12]                      
 965 05e6 0299     		ldr    r1, [sp, #8]                      
 966 05e8 059A     		ldr    r2, [sp, #20]                      
 967 05ea 019B     		ldr    r3, [sp, #4]                      
 968 05ec 1F0C     		lsr    r7, r3, #16                 
 969 05ee B946     		mov    r9, r7                      
 970 05f0 1F04     		lsl    r7, r3, #16                 
 971 05f2 3F0C     		lsr    r7, r7, #16                 
 972 05f4 B846     		mov    r8, r7                      
 973 05f6 40C8     		ldmia  r0!, {r6}                   
 974 05f8 370C     		lsr    r7, r6, #16                 
 975 05fa 3604     		lsl    r6, r6, #16                 
 976 05fc 360C     		lsr    r6, r6, #16                 
 977 05fe 4446     		mov    r4, r8                      
 978 0600 7443     		mul    r4, r6                      
 979 0602 4B46     		mov    r3, r9                      
 980 0604 5E43     		mul    r6, r3                      
 981 0606 4D46     		mov    r5, r9                      
 982 0608 7D43     		mul    r5, r7                      
 983 060a 4346     		mov    r3, r8                      
 984 060c 5F43     		mul    r7, r3                      
 985 060e 330C     		lsr    r3, r6, #16                 
 986 0610 ED18     		add    r5, r5, r3                  
 987 0612 3B0C     		lsr    r3, r7, #16                 
 988 0614 ED18     		add    r5, r5, r3                  
 989 0616 A418     		add    r4, r4, r2                  
 990 0618 0022     		mov    r2, #0                      
 991 061a 5541     		adc    r5, r2                      
 992 061c 3304     		lsl    r3, r6, #16                 
 993 061e E418     		add    r4, r4, r3                  
 994 0620 5541     		adc    r5, r2                      
 995 0622 3B04     		lsl    r3, r7, #16                 
 996 0624 E418     		add    r4, r4, r3                  
 997 0626 5541     		adc    r5, r2                      
 998 0628 0B68     		ldr    r3, [r1]                    
 999 062a E418     		add    r4, r4, r3                  
 1000 062c 6A41     		adc    r2, r5                      
 1001 062e 10C1     		stmia  r1!, {r4}                   
 1002 0630 0592     		str    r2, [sp, #20]                      
 1003 0632 0291     		str    r1, [sp, #8]                      
 1004 0634 0390     		str    r0, [sp, #12]                      
 1005              		
 1006              	@ 0 "" 2
 1007              	.LVL22:
1154:.././crypto/mbedtls//library/bignum.c ****     {
 1008              		.loc 1 1154 19 discriminator 2 view .LVU60
1154:.././crypto/mbedtls//library/bignum.c ****     {
 1009              		.loc 1 1154 20 is_stmt 0 discriminator 2 view .LVU61
 1010              		.thumb
 1011              		.syntax unified
 1012 0636 0123     		movs	r3, #1
 1013              	.L27:
1143:.././crypto/mbedtls//library/bignum.c ****     {
 1014              		.loc 1 1143 22 discriminator 2 view .LVU62
 1015 0638 5B42     		rsbs	r3, r3, #0
 1016 063a 9846     		mov	r8, r3
 1017 063c C444     		add	ip, ip, r8
 1018              	.LVL23:
1143:.././crypto/mbedtls//library/bignum.c ****     {
 1019              		.loc 1 1143 12 is_stmt 1 discriminator 2 view .LVU63
 1020              	.L18:
1154:.././crypto/mbedtls//library/bignum.c ****     {
 1021              		.loc 1 1154 12 view .LVU64
1154:.././crypto/mbedtls//library/bignum.c ****     {
 1022              		.loc 1 1154 5 is_stmt 0 view .LVU65
 1023 063e 6346     		mov	r3, ip
 1024 0640 002B     		cmp	r3, #0
 1025 0642 CFD1     		bne	.L19
 1026              	.LVL24:
1154:.././crypto/mbedtls//library/bignum.c ****     {
 1027              		.loc 1 1154 5 view .LVU66
 1028 0644 059A     		ldr	r2, [sp, #20]
 1029 0646 0299     		ldr	r1, [sp, #8]
 1030              	.LVL25:
 1031              	.L20:
1157:.././crypto/mbedtls//library/bignum.c ****         MULADDC_CORE
1158:.././crypto/mbedtls//library/bignum.c ****         MULADDC_STOP
1159:.././crypto/mbedtls//library/bignum.c ****     }
1160:.././crypto/mbedtls//library/bignum.c **** #endif /* MULADDC_HUIT */
1161:.././crypto/mbedtls//library/bignum.c **** 
1162:.././crypto/mbedtls//library/bignum.c ****     t++;
1163:.././crypto/mbedtls//library/bignum.c **** 
1164:.././crypto/mbedtls//library/bignum.c ****     do {
 1032              		.loc 1 1164 5 is_stmt 1 discriminator 1 view .LVU67
1165:.././crypto/mbedtls//library/bignum.c ****         *d += c; c = ( *d < c ); d++;
 1033              		.loc 1 1165 9 discriminator 1 view .LVU68
 1034              		.loc 1 1165 12 is_stmt 0 discriminator 1 view .LVU69
 1035 0648 0B68     		ldr	r3, [r1]
 1036 064a D318     		adds	r3, r2, r3
 1037 064c 08C1     		stmia	r1!, {r3}
 1038              		.loc 1 1165 18 is_stmt 1 discriminator 1 view .LVU70
 1039              		.loc 1 1165 27 is_stmt 0 discriminator 1 view .LVU71
 1040 064e 0598     		ldr	r0, [sp, #20]
 1041 0650 8342     		cmp	r3, r0
 1042 0652 9241     		sbcs	r2, r2, r2
 1043 0654 5242     		rsbs	r2, r2, #0
 1044              		.loc 1 1165 20 discriminator 1 view .LVU72
 1045 0656 0592     		str	r2, [sp, #20]
 1046              		.loc 1 1165 34 is_stmt 1 discriminator 1 view .LVU73
1166:.././crypto/mbedtls//library/bignum.c ****     }
1167:.././crypto/mbedtls//library/bignum.c ****     while( c != 0 );
 1047              		.loc 1 1167 10 discriminator 1 view .LVU74
 1048 0658 0122     		movs	r2, #1
 1049              		.loc 1 1167 5 is_stmt 0 discriminator 1 view .LVU75
 1050 065a 8342     		cmp	r3, r0
 1051 065c F4D3     		bcc	.L20
1168:.././crypto/mbedtls//library/bignum.c **** }
 1052              		.loc 1 1168 1 view .LVU76
 1053 065e 06B0     		add	sp, sp, #24
 1054              		@ sp needed
 1055 0660 1CBC     		pop	{r2, r3, r4}
 1056 0662 9046     		mov	r8, r2
 1057 0664 9946     		mov	r9, r3
 1058 0666 A246     		mov	r10, r4
 1059 0668 F0BD     		pop	{r4, r5, r6, r7, pc}
 1060              		.cfi_endproc
 1061              	.LFE37:
 1063              		.global	__aeabi_uidivmod
 1064 066a C046     		.section	.text.mbedtls_mpi_mod_int.part.0,"ax",%progbits
 1065              		.align	1
 1066              		.p2align 2,,3
 1067              		.syntax unified
 1068              		.code	16
 1069              		.thumb_func
 1070              		.fpu softvfp
 1072              	mbedtls_mpi_mod_int.part.0:
 1073              	.LVL26:
 1074              	.LFB60:
1169:.././crypto/mbedtls//library/bignum.c **** 
1170:.././crypto/mbedtls//library/bignum.c **** /*
1171:.././crypto/mbedtls//library/bignum.c ****  * Baseline multiplication: X = A * B  (HAC 14.12)
1172:.././crypto/mbedtls//library/bignum.c ****  */
1173:.././crypto/mbedtls//library/bignum.c **** int mbedtls_mpi_mul_mpi( mbedtls_mpi *X, const mbedtls_mpi *A, const mbedtls_mpi *B )
1174:.././crypto/mbedtls//library/bignum.c **** {
1175:.././crypto/mbedtls//library/bignum.c ****     int ret;
1176:.././crypto/mbedtls//library/bignum.c ****     size_t i, j;
1177:.././crypto/mbedtls//library/bignum.c ****     mbedtls_mpi TA, TB;
1178:.././crypto/mbedtls//library/bignum.c **** 
1179:.././crypto/mbedtls//library/bignum.c ****     mbedtls_mpi_init( &TA ); mbedtls_mpi_init( &TB );
1180:.././crypto/mbedtls//library/bignum.c **** 
1181:.././crypto/mbedtls//library/bignum.c ****     if( X == A ) { MBEDTLS_MPI_CHK( mbedtls_mpi_copy( &TA, A ) ); A = &TA; }
1182:.././crypto/mbedtls//library/bignum.c ****     if( X == B ) { MBEDTLS_MPI_CHK( mbedtls_mpi_copy( &TB, B ) ); B = &TB; }
1183:.././crypto/mbedtls//library/bignum.c **** 
1184:.././crypto/mbedtls//library/bignum.c ****     for( i = A->n; i > 0; i-- )
1185:.././crypto/mbedtls//library/bignum.c ****         if( A->p[i - 1] != 0 )
1186:.././crypto/mbedtls//library/bignum.c ****             break;
1187:.././crypto/mbedtls//library/bignum.c **** 
1188:.././crypto/mbedtls//library/bignum.c ****     for( j = B->n; j > 0; j-- )
1189:.././crypto/mbedtls//library/bignum.c ****         if( B->p[j - 1] != 0 )
1190:.././crypto/mbedtls//library/bignum.c ****             break;
1191:.././crypto/mbedtls//library/bignum.c **** 
1192:.././crypto/mbedtls//library/bignum.c ****     MBEDTLS_MPI_CHK( mbedtls_mpi_grow( X, i + j ) );
1193:.././crypto/mbedtls//library/bignum.c ****     MBEDTLS_MPI_CHK( mbedtls_mpi_lset( X, 0 ) );
1194:.././crypto/mbedtls//library/bignum.c **** 
1195:.././crypto/mbedtls//library/bignum.c ****     for( i++; j > 0; j-- )
1196:.././crypto/mbedtls//library/bignum.c ****         mpi_mul_hlp( i - 1, A->p, X->p + j - 1, B->p[j - 1] );
1197:.././crypto/mbedtls//library/bignum.c **** 
1198:.././crypto/mbedtls//library/bignum.c ****     X->s = A->s * B->s;
1199:.././crypto/mbedtls//library/bignum.c **** 
1200:.././crypto/mbedtls//library/bignum.c **** cleanup:
1201:.././crypto/mbedtls//library/bignum.c **** 
1202:.././crypto/mbedtls//library/bignum.c ****     mbedtls_mpi_free( &TB ); mbedtls_mpi_free( &TA );
1203:.././crypto/mbedtls//library/bignum.c **** 
1204:.././crypto/mbedtls//library/bignum.c ****     return( ret );
1205:.././crypto/mbedtls//library/bignum.c **** }
1206:.././crypto/mbedtls//library/bignum.c **** 
1207:.././crypto/mbedtls//library/bignum.c **** /*
1208:.././crypto/mbedtls//library/bignum.c ****  * Baseline multiplication: X = A * b
1209:.././crypto/mbedtls//library/bignum.c ****  */
1210:.././crypto/mbedtls//library/bignum.c **** int mbedtls_mpi_mul_int( mbedtls_mpi *X, const mbedtls_mpi *A, mbedtls_mpi_uint b )
1211:.././crypto/mbedtls//library/bignum.c **** {
1212:.././crypto/mbedtls//library/bignum.c ****     mbedtls_mpi _B;
1213:.././crypto/mbedtls//library/bignum.c ****     mbedtls_mpi_uint p[1];
1214:.././crypto/mbedtls//library/bignum.c **** 
1215:.././crypto/mbedtls//library/bignum.c ****     _B.s = 1;
1216:.././crypto/mbedtls//library/bignum.c ****     _B.n = 1;
1217:.././crypto/mbedtls//library/bignum.c ****     _B.p = p;
1218:.././crypto/mbedtls//library/bignum.c ****     p[0] = b;
1219:.././crypto/mbedtls//library/bignum.c **** 
1220:.././crypto/mbedtls//library/bignum.c ****     return( mbedtls_mpi_mul_mpi( X, A, &_B ) );
1221:.././crypto/mbedtls//library/bignum.c **** }
1222:.././crypto/mbedtls//library/bignum.c **** 
1223:.././crypto/mbedtls//library/bignum.c **** /*
1224:.././crypto/mbedtls//library/bignum.c ****  * Unsigned integer divide - double mbedtls_mpi_uint dividend, u1/u0, and
1225:.././crypto/mbedtls//library/bignum.c ****  * mbedtls_mpi_uint divisor, d
1226:.././crypto/mbedtls//library/bignum.c ****  */
1227:.././crypto/mbedtls//library/bignum.c **** static mbedtls_mpi_uint mbedtls_int_div_int( mbedtls_mpi_uint u1,
1228:.././crypto/mbedtls//library/bignum.c ****             mbedtls_mpi_uint u0, mbedtls_mpi_uint d, mbedtls_mpi_uint *r )
1229:.././crypto/mbedtls//library/bignum.c **** {
1230:.././crypto/mbedtls//library/bignum.c **** #if defined(MBEDTLS_HAVE_UDBL)
1231:.././crypto/mbedtls//library/bignum.c ****     mbedtls_t_udbl dividend, quotient;
1232:.././crypto/mbedtls//library/bignum.c **** #else
1233:.././crypto/mbedtls//library/bignum.c ****     const mbedtls_mpi_uint radix = (mbedtls_mpi_uint) 1 << biH;
1234:.././crypto/mbedtls//library/bignum.c ****     const mbedtls_mpi_uint uint_halfword_mask = ( (mbedtls_mpi_uint) 1 << biH ) - 1;
1235:.././crypto/mbedtls//library/bignum.c ****     mbedtls_mpi_uint d0, d1, q0, q1, rAX, r0, quotient;
1236:.././crypto/mbedtls//library/bignum.c ****     mbedtls_mpi_uint u0_msw, u0_lsw;
1237:.././crypto/mbedtls//library/bignum.c ****     size_t s;
1238:.././crypto/mbedtls//library/bignum.c **** #endif
1239:.././crypto/mbedtls//library/bignum.c **** 
1240:.././crypto/mbedtls//library/bignum.c ****     /*
1241:.././crypto/mbedtls//library/bignum.c ****      * Check for overflow
1242:.././crypto/mbedtls//library/bignum.c ****      */
1243:.././crypto/mbedtls//library/bignum.c ****     if( 0 == d || u1 >= d )
1244:.././crypto/mbedtls//library/bignum.c ****     {
1245:.././crypto/mbedtls//library/bignum.c ****         if (r != NULL) *r = ~0;
1246:.././crypto/mbedtls//library/bignum.c **** 
1247:.././crypto/mbedtls//library/bignum.c ****         return ( ~0 );
1248:.././crypto/mbedtls//library/bignum.c ****     }
1249:.././crypto/mbedtls//library/bignum.c **** 
1250:.././crypto/mbedtls//library/bignum.c **** #if defined(MBEDTLS_HAVE_UDBL)
1251:.././crypto/mbedtls//library/bignum.c ****     dividend  = (mbedtls_t_udbl) u1 << biL;
1252:.././crypto/mbedtls//library/bignum.c ****     dividend |= (mbedtls_t_udbl) u0;
1253:.././crypto/mbedtls//library/bignum.c ****     quotient = dividend / d;
1254:.././crypto/mbedtls//library/bignum.c ****     if( quotient > ( (mbedtls_t_udbl) 1 << biL ) - 1 )
1255:.././crypto/mbedtls//library/bignum.c ****         quotient = ( (mbedtls_t_udbl) 1 << biL ) - 1;
1256:.././crypto/mbedtls//library/bignum.c **** 
1257:.././crypto/mbedtls//library/bignum.c ****     if( r != NULL )
1258:.././crypto/mbedtls//library/bignum.c ****         *r = (mbedtls_mpi_uint)( dividend - (quotient * d ) );
1259:.././crypto/mbedtls//library/bignum.c **** 
1260:.././crypto/mbedtls//library/bignum.c ****     return (mbedtls_mpi_uint) quotient;
1261:.././crypto/mbedtls//library/bignum.c **** #else
1262:.././crypto/mbedtls//library/bignum.c **** 
1263:.././crypto/mbedtls//library/bignum.c ****     /*
1264:.././crypto/mbedtls//library/bignum.c ****      * Algorithm D, Section 4.3.1 - The Art of Computer Programming
1265:.././crypto/mbedtls//library/bignum.c ****      *   Vol. 2 - Seminumerical Algorithms, Knuth
1266:.././crypto/mbedtls//library/bignum.c ****      */
1267:.././crypto/mbedtls//library/bignum.c **** 
1268:.././crypto/mbedtls//library/bignum.c ****     /*
1269:.././crypto/mbedtls//library/bignum.c ****      * Normalize the divisor, d, and dividend, u0, u1
1270:.././crypto/mbedtls//library/bignum.c ****      */
1271:.././crypto/mbedtls//library/bignum.c ****     s = mbedtls_clz( d );
1272:.././crypto/mbedtls//library/bignum.c ****     d = d << s;
1273:.././crypto/mbedtls//library/bignum.c **** 
1274:.././crypto/mbedtls//library/bignum.c ****     u1 = u1 << s;
1275:.././crypto/mbedtls//library/bignum.c ****     u1 |= ( u0 >> ( biL - s ) ) & ( -(mbedtls_mpi_sint)s >> ( biL - 1 ) );
1276:.././crypto/mbedtls//library/bignum.c ****     u0 =  u0 << s;
1277:.././crypto/mbedtls//library/bignum.c **** 
1278:.././crypto/mbedtls//library/bignum.c ****     d1 = d >> biH;
1279:.././crypto/mbedtls//library/bignum.c ****     d0 = d & uint_halfword_mask;
1280:.././crypto/mbedtls//library/bignum.c **** 
1281:.././crypto/mbedtls//library/bignum.c ****     u0_msw = u0 >> biH;
1282:.././crypto/mbedtls//library/bignum.c ****     u0_lsw = u0 & uint_halfword_mask;
1283:.././crypto/mbedtls//library/bignum.c **** 
1284:.././crypto/mbedtls//library/bignum.c ****     /*
1285:.././crypto/mbedtls//library/bignum.c ****      * Find the first quotient and remainder
1286:.././crypto/mbedtls//library/bignum.c ****      */
1287:.././crypto/mbedtls//library/bignum.c ****     q1 = u1 / d1;
1288:.././crypto/mbedtls//library/bignum.c ****     r0 = u1 - d1 * q1;
1289:.././crypto/mbedtls//library/bignum.c **** 
1290:.././crypto/mbedtls//library/bignum.c ****     while( q1 >= radix || ( q1 * d0 > radix * r0 + u0_msw ) )
1291:.././crypto/mbedtls//library/bignum.c ****     {
1292:.././crypto/mbedtls//library/bignum.c ****         q1 -= 1;
1293:.././crypto/mbedtls//library/bignum.c ****         r0 += d1;
1294:.././crypto/mbedtls//library/bignum.c **** 
1295:.././crypto/mbedtls//library/bignum.c ****         if ( r0 >= radix ) break;
1296:.././crypto/mbedtls//library/bignum.c ****     }
1297:.././crypto/mbedtls//library/bignum.c **** 
1298:.././crypto/mbedtls//library/bignum.c ****     rAX = ( u1 * radix ) + ( u0_msw - q1 * d );
1299:.././crypto/mbedtls//library/bignum.c ****     q0 = rAX / d1;
1300:.././crypto/mbedtls//library/bignum.c ****     r0 = rAX - q0 * d1;
1301:.././crypto/mbedtls//library/bignum.c **** 
1302:.././crypto/mbedtls//library/bignum.c ****     while( q0 >= radix || ( q0 * d0 > radix * r0 + u0_lsw ) )
1303:.././crypto/mbedtls//library/bignum.c ****     {
1304:.././crypto/mbedtls//library/bignum.c ****         q0 -= 1;
1305:.././crypto/mbedtls//library/bignum.c ****         r0 += d1;
1306:.././crypto/mbedtls//library/bignum.c **** 
1307:.././crypto/mbedtls//library/bignum.c ****         if ( r0 >= radix ) break;
1308:.././crypto/mbedtls//library/bignum.c ****     }
1309:.././crypto/mbedtls//library/bignum.c **** 
1310:.././crypto/mbedtls//library/bignum.c ****     if (r != NULL)
1311:.././crypto/mbedtls//library/bignum.c ****         *r = ( rAX * radix + u0_lsw - q0 * d ) >> s;
1312:.././crypto/mbedtls//library/bignum.c **** 
1313:.././crypto/mbedtls//library/bignum.c ****     quotient = q1 * radix + q0;
1314:.././crypto/mbedtls//library/bignum.c **** 
1315:.././crypto/mbedtls//library/bignum.c ****     return quotient;
1316:.././crypto/mbedtls//library/bignum.c **** #endif
1317:.././crypto/mbedtls//library/bignum.c **** }
1318:.././crypto/mbedtls//library/bignum.c **** 
1319:.././crypto/mbedtls//library/bignum.c **** /*
1320:.././crypto/mbedtls//library/bignum.c ****  * Division by mbedtls_mpi: A = Q * B + R  (HAC 14.20)
1321:.././crypto/mbedtls//library/bignum.c ****  */
1322:.././crypto/mbedtls//library/bignum.c **** int mbedtls_mpi_div_mpi( mbedtls_mpi *Q, mbedtls_mpi *R, const mbedtls_mpi *A, const mbedtls_mpi *B
1323:.././crypto/mbedtls//library/bignum.c **** {
1324:.././crypto/mbedtls//library/bignum.c ****     int ret;
1325:.././crypto/mbedtls//library/bignum.c ****     size_t i, n, t, k;
1326:.././crypto/mbedtls//library/bignum.c ****     mbedtls_mpi X, Y, Z, T1, T2;
1327:.././crypto/mbedtls//library/bignum.c **** 
1328:.././crypto/mbedtls//library/bignum.c ****     if( mbedtls_mpi_cmp_int( B, 0 ) == 0 )
1329:.././crypto/mbedtls//library/bignum.c ****         return( MBEDTLS_ERR_MPI_DIVISION_BY_ZERO );
1330:.././crypto/mbedtls//library/bignum.c **** 
1331:.././crypto/mbedtls//library/bignum.c ****     mbedtls_mpi_init( &X ); mbedtls_mpi_init( &Y ); mbedtls_mpi_init( &Z );
1332:.././crypto/mbedtls//library/bignum.c ****     mbedtls_mpi_init( &T1 ); mbedtls_mpi_init( &T2 );
1333:.././crypto/mbedtls//library/bignum.c **** 
1334:.././crypto/mbedtls//library/bignum.c ****     if( mbedtls_mpi_cmp_abs( A, B ) < 0 )
1335:.././crypto/mbedtls//library/bignum.c ****     {
1336:.././crypto/mbedtls//library/bignum.c ****         if( Q != NULL ) MBEDTLS_MPI_CHK( mbedtls_mpi_lset( Q, 0 ) );
1337:.././crypto/mbedtls//library/bignum.c ****         if( R != NULL ) MBEDTLS_MPI_CHK( mbedtls_mpi_copy( R, A ) );
1338:.././crypto/mbedtls//library/bignum.c ****         return( 0 );
1339:.././crypto/mbedtls//library/bignum.c ****     }
1340:.././crypto/mbedtls//library/bignum.c **** 
1341:.././crypto/mbedtls//library/bignum.c ****     MBEDTLS_MPI_CHK( mbedtls_mpi_copy( &X, A ) );
1342:.././crypto/mbedtls//library/bignum.c ****     MBEDTLS_MPI_CHK( mbedtls_mpi_copy( &Y, B ) );
1343:.././crypto/mbedtls//library/bignum.c ****     X.s = Y.s = 1;
1344:.././crypto/mbedtls//library/bignum.c **** 
1345:.././crypto/mbedtls//library/bignum.c ****     MBEDTLS_MPI_CHK( mbedtls_mpi_grow( &Z, A->n + 2 ) );
1346:.././crypto/mbedtls//library/bignum.c ****     MBEDTLS_MPI_CHK( mbedtls_mpi_lset( &Z,  0 ) );
1347:.././crypto/mbedtls//library/bignum.c ****     MBEDTLS_MPI_CHK( mbedtls_mpi_grow( &T1, 2 ) );
1348:.././crypto/mbedtls//library/bignum.c ****     MBEDTLS_MPI_CHK( mbedtls_mpi_grow( &T2, 3 ) );
1349:.././crypto/mbedtls//library/bignum.c **** 
1350:.././crypto/mbedtls//library/bignum.c ****     k = mbedtls_mpi_bitlen( &Y ) % biL;
1351:.././crypto/mbedtls//library/bignum.c ****     if( k < biL - 1 )
1352:.././crypto/mbedtls//library/bignum.c ****     {
1353:.././crypto/mbedtls//library/bignum.c ****         k = biL - 1 - k;
1354:.././crypto/mbedtls//library/bignum.c ****         MBEDTLS_MPI_CHK( mbedtls_mpi_shift_l( &X, k ) );
1355:.././crypto/mbedtls//library/bignum.c ****         MBEDTLS_MPI_CHK( mbedtls_mpi_shift_l( &Y, k ) );
1356:.././crypto/mbedtls//library/bignum.c ****     }
1357:.././crypto/mbedtls//library/bignum.c ****     else k = 0;
1358:.././crypto/mbedtls//library/bignum.c **** 
1359:.././crypto/mbedtls//library/bignum.c ****     n = X.n - 1;
1360:.././crypto/mbedtls//library/bignum.c ****     t = Y.n - 1;
1361:.././crypto/mbedtls//library/bignum.c ****     MBEDTLS_MPI_CHK( mbedtls_mpi_shift_l( &Y, biL * ( n - t ) ) );
1362:.././crypto/mbedtls//library/bignum.c **** 
1363:.././crypto/mbedtls//library/bignum.c ****     while( mbedtls_mpi_cmp_mpi( &X, &Y ) >= 0 )
1364:.././crypto/mbedtls//library/bignum.c ****     {
1365:.././crypto/mbedtls//library/bignum.c ****         Z.p[n - t]++;
1366:.././crypto/mbedtls//library/bignum.c ****         MBEDTLS_MPI_CHK( mbedtls_mpi_sub_mpi( &X, &X, &Y ) );
1367:.././crypto/mbedtls//library/bignum.c ****     }
1368:.././crypto/mbedtls//library/bignum.c ****     MBEDTLS_MPI_CHK( mbedtls_mpi_shift_r( &Y, biL * ( n - t ) ) );
1369:.././crypto/mbedtls//library/bignum.c **** 
1370:.././crypto/mbedtls//library/bignum.c ****     for( i = n; i > t ; i-- )
1371:.././crypto/mbedtls//library/bignum.c ****     {
1372:.././crypto/mbedtls//library/bignum.c ****         if( X.p[i] >= Y.p[t] )
1373:.././crypto/mbedtls//library/bignum.c ****             Z.p[i - t - 1] = ~0;
1374:.././crypto/mbedtls//library/bignum.c ****         else
1375:.././crypto/mbedtls//library/bignum.c ****         {
1376:.././crypto/mbedtls//library/bignum.c ****             Z.p[i - t - 1] = mbedtls_int_div_int( X.p[i], X.p[i - 1],
1377:.././crypto/mbedtls//library/bignum.c ****                                                             Y.p[t], NULL);
1378:.././crypto/mbedtls//library/bignum.c ****         }
1379:.././crypto/mbedtls//library/bignum.c **** 
1380:.././crypto/mbedtls//library/bignum.c ****         Z.p[i - t - 1]++;
1381:.././crypto/mbedtls//library/bignum.c ****         do
1382:.././crypto/mbedtls//library/bignum.c ****         {
1383:.././crypto/mbedtls//library/bignum.c ****             Z.p[i - t - 1]--;
1384:.././crypto/mbedtls//library/bignum.c **** 
1385:.././crypto/mbedtls//library/bignum.c ****             MBEDTLS_MPI_CHK( mbedtls_mpi_lset( &T1, 0 ) );
1386:.././crypto/mbedtls//library/bignum.c ****             T1.p[0] = ( t < 1 ) ? 0 : Y.p[t - 1];
1387:.././crypto/mbedtls//library/bignum.c ****             T1.p[1] = Y.p[t];
1388:.././crypto/mbedtls//library/bignum.c ****             MBEDTLS_MPI_CHK( mbedtls_mpi_mul_int( &T1, &T1, Z.p[i - t - 1] ) );
1389:.././crypto/mbedtls//library/bignum.c **** 
1390:.././crypto/mbedtls//library/bignum.c ****             MBEDTLS_MPI_CHK( mbedtls_mpi_lset( &T2, 0 ) );
1391:.././crypto/mbedtls//library/bignum.c ****             T2.p[0] = ( i < 2 ) ? 0 : X.p[i - 2];
1392:.././crypto/mbedtls//library/bignum.c ****             T2.p[1] = ( i < 1 ) ? 0 : X.p[i - 1];
1393:.././crypto/mbedtls//library/bignum.c ****             T2.p[2] = X.p[i];
1394:.././crypto/mbedtls//library/bignum.c ****         }
1395:.././crypto/mbedtls//library/bignum.c ****         while( mbedtls_mpi_cmp_mpi( &T1, &T2 ) > 0 );
1396:.././crypto/mbedtls//library/bignum.c **** 
1397:.././crypto/mbedtls//library/bignum.c ****         MBEDTLS_MPI_CHK( mbedtls_mpi_mul_int( &T1, &Y, Z.p[i - t - 1] ) );
1398:.././crypto/mbedtls//library/bignum.c ****         MBEDTLS_MPI_CHK( mbedtls_mpi_shift_l( &T1,  biL * ( i - t - 1 ) ) );
1399:.././crypto/mbedtls//library/bignum.c ****         MBEDTLS_MPI_CHK( mbedtls_mpi_sub_mpi( &X, &X, &T1 ) );
1400:.././crypto/mbedtls//library/bignum.c **** 
1401:.././crypto/mbedtls//library/bignum.c ****         if( mbedtls_mpi_cmp_int( &X, 0 ) < 0 )
1402:.././crypto/mbedtls//library/bignum.c ****         {
1403:.././crypto/mbedtls//library/bignum.c ****             MBEDTLS_MPI_CHK( mbedtls_mpi_copy( &T1, &Y ) );
1404:.././crypto/mbedtls//library/bignum.c ****             MBEDTLS_MPI_CHK( mbedtls_mpi_shift_l( &T1, biL * ( i - t - 1 ) ) );
1405:.././crypto/mbedtls//library/bignum.c ****             MBEDTLS_MPI_CHK( mbedtls_mpi_add_mpi( &X, &X, &T1 ) );
1406:.././crypto/mbedtls//library/bignum.c ****             Z.p[i - t - 1]--;
1407:.././crypto/mbedtls//library/bignum.c ****         }
1408:.././crypto/mbedtls//library/bignum.c ****     }
1409:.././crypto/mbedtls//library/bignum.c **** 
1410:.././crypto/mbedtls//library/bignum.c ****     if( Q != NULL )
1411:.././crypto/mbedtls//library/bignum.c ****     {
1412:.././crypto/mbedtls//library/bignum.c ****         MBEDTLS_MPI_CHK( mbedtls_mpi_copy( Q, &Z ) );
1413:.././crypto/mbedtls//library/bignum.c ****         Q->s = A->s * B->s;
1414:.././crypto/mbedtls//library/bignum.c ****     }
1415:.././crypto/mbedtls//library/bignum.c **** 
1416:.././crypto/mbedtls//library/bignum.c ****     if( R != NULL )
1417:.././crypto/mbedtls//library/bignum.c ****     {
1418:.././crypto/mbedtls//library/bignum.c ****         MBEDTLS_MPI_CHK( mbedtls_mpi_shift_r( &X, k ) );
1419:.././crypto/mbedtls//library/bignum.c ****         X.s = A->s;
1420:.././crypto/mbedtls//library/bignum.c ****         MBEDTLS_MPI_CHK( mbedtls_mpi_copy( R, &X ) );
1421:.././crypto/mbedtls//library/bignum.c **** 
1422:.././crypto/mbedtls//library/bignum.c ****         if( mbedtls_mpi_cmp_int( R, 0 ) == 0 )
1423:.././crypto/mbedtls//library/bignum.c ****             R->s = 1;
1424:.././crypto/mbedtls//library/bignum.c ****     }
1425:.././crypto/mbedtls//library/bignum.c **** 
1426:.././crypto/mbedtls//library/bignum.c **** cleanup:
1427:.././crypto/mbedtls//library/bignum.c **** 
1428:.././crypto/mbedtls//library/bignum.c ****     mbedtls_mpi_free( &X ); mbedtls_mpi_free( &Y ); mbedtls_mpi_free( &Z );
1429:.././crypto/mbedtls//library/bignum.c ****     mbedtls_mpi_free( &T1 ); mbedtls_mpi_free( &T2 );
1430:.././crypto/mbedtls//library/bignum.c **** 
1431:.././crypto/mbedtls//library/bignum.c ****     return( ret );
1432:.././crypto/mbedtls//library/bignum.c **** }
1433:.././crypto/mbedtls//library/bignum.c **** 
1434:.././crypto/mbedtls//library/bignum.c **** /*
1435:.././crypto/mbedtls//library/bignum.c ****  * Division by int: A = Q * b + R
1436:.././crypto/mbedtls//library/bignum.c ****  */
1437:.././crypto/mbedtls//library/bignum.c **** int mbedtls_mpi_div_int( mbedtls_mpi *Q, mbedtls_mpi *R, const mbedtls_mpi *A, mbedtls_mpi_sint b )
1438:.././crypto/mbedtls//library/bignum.c **** {
1439:.././crypto/mbedtls//library/bignum.c ****     mbedtls_mpi _B;
1440:.././crypto/mbedtls//library/bignum.c ****     mbedtls_mpi_uint p[1];
1441:.././crypto/mbedtls//library/bignum.c **** 
1442:.././crypto/mbedtls//library/bignum.c ****     p[0] = ( b < 0 ) ? -b : b;
1443:.././crypto/mbedtls//library/bignum.c ****     _B.s = ( b < 0 ) ? -1 : 1;
1444:.././crypto/mbedtls//library/bignum.c ****     _B.n = 1;
1445:.././crypto/mbedtls//library/bignum.c ****     _B.p = p;
1446:.././crypto/mbedtls//library/bignum.c **** 
1447:.././crypto/mbedtls//library/bignum.c ****     return( mbedtls_mpi_div_mpi( Q, R, A, &_B ) );
1448:.././crypto/mbedtls//library/bignum.c **** }
1449:.././crypto/mbedtls//library/bignum.c **** 
1450:.././crypto/mbedtls//library/bignum.c **** /*
1451:.././crypto/mbedtls//library/bignum.c ****  * Modulo: R = A mod B
1452:.././crypto/mbedtls//library/bignum.c ****  */
1453:.././crypto/mbedtls//library/bignum.c **** int mbedtls_mpi_mod_mpi( mbedtls_mpi *R, const mbedtls_mpi *A, const mbedtls_mpi *B )
1454:.././crypto/mbedtls//library/bignum.c **** {
1455:.././crypto/mbedtls//library/bignum.c ****     int ret;
1456:.././crypto/mbedtls//library/bignum.c **** 
1457:.././crypto/mbedtls//library/bignum.c ****     if( mbedtls_mpi_cmp_int( B, 0 ) < 0 )
1458:.././crypto/mbedtls//library/bignum.c ****         return( MBEDTLS_ERR_MPI_NEGATIVE_VALUE );
1459:.././crypto/mbedtls//library/bignum.c **** 
1460:.././crypto/mbedtls//library/bignum.c ****     MBEDTLS_MPI_CHK( mbedtls_mpi_div_mpi( NULL, R, A, B ) );
1461:.././crypto/mbedtls//library/bignum.c **** 
1462:.././crypto/mbedtls//library/bignum.c ****     while( mbedtls_mpi_cmp_int( R, 0 ) < 0 )
1463:.././crypto/mbedtls//library/bignum.c ****       MBEDTLS_MPI_CHK( mbedtls_mpi_add_mpi( R, R, B ) );
1464:.././crypto/mbedtls//library/bignum.c **** 
1465:.././crypto/mbedtls//library/bignum.c ****     while( mbedtls_mpi_cmp_mpi( R, B ) >= 0 )
1466:.././crypto/mbedtls//library/bignum.c ****       MBEDTLS_MPI_CHK( mbedtls_mpi_sub_mpi( R, R, B ) );
1467:.././crypto/mbedtls//library/bignum.c **** 
1468:.././crypto/mbedtls//library/bignum.c **** cleanup:
1469:.././crypto/mbedtls//library/bignum.c **** 
1470:.././crypto/mbedtls//library/bignum.c ****     return( ret );
1471:.././crypto/mbedtls//library/bignum.c **** }
1472:.././crypto/mbedtls//library/bignum.c **** 
1473:.././crypto/mbedtls//library/bignum.c **** /*
1474:.././crypto/mbedtls//library/bignum.c ****  * Modulo: r = A mod b
1475:.././crypto/mbedtls//library/bignum.c ****  */
1476:.././crypto/mbedtls//library/bignum.c **** int mbedtls_mpi_mod_int( mbedtls_mpi_uint *r, const mbedtls_mpi *A, mbedtls_mpi_sint b )
 1075              		.loc 1 1476 5 is_stmt 1 view -0
 1076              		.cfi_startproc
 1077              		@ args = 0, pretend = 0, frame = 0
 1078              		@ frame_needed = 0, uses_anonymous_args = 0
 1079              		.loc 1 1476 5 is_stmt 0 view .LVU78
 1080 0000 F8B5     		push	{r3, r4, r5, r6, r7, lr}
 1081              	.LCFI4:
 1082              		.cfi_def_cfa_offset 24
 1083              		.cfi_offset 3, -24
 1084              		.cfi_offset 4, -20
 1085              		.cfi_offset 5, -16
 1086              		.cfi_offset 6, -12
 1087              		.cfi_offset 7, -8
 1088              		.cfi_offset 14, -4
 1089 0002 CE46     		mov	lr, r9
 1090 0004 4746     		mov	r7, r8
1477:.././crypto/mbedtls//library/bignum.c **** {
1478:.././crypto/mbedtls//library/bignum.c ****     size_t i;
1479:.././crypto/mbedtls//library/bignum.c ****     mbedtls_mpi_uint x, y, z;
1480:.././crypto/mbedtls//library/bignum.c **** 
1481:.././crypto/mbedtls//library/bignum.c ****     if( b == 0 )
1482:.././crypto/mbedtls//library/bignum.c ****         return( MBEDTLS_ERR_MPI_DIVISION_BY_ZERO );
1483:.././crypto/mbedtls//library/bignum.c **** 
1484:.././crypto/mbedtls//library/bignum.c ****     if( b < 0 )
1485:.././crypto/mbedtls//library/bignum.c ****         return( MBEDTLS_ERR_MPI_NEGATIVE_VALUE );
1486:.././crypto/mbedtls//library/bignum.c **** 
1487:.././crypto/mbedtls//library/bignum.c ****     /*
1488:.././crypto/mbedtls//library/bignum.c ****      * handle trivial cases
1489:.././crypto/mbedtls//library/bignum.c ****      */
1490:.././crypto/mbedtls//library/bignum.c ****     if( b == 1 )
1491:.././crypto/mbedtls//library/bignum.c ****     {
1492:.././crypto/mbedtls//library/bignum.c ****         *r = 0;
1493:.././crypto/mbedtls//library/bignum.c ****         return( 0 );
1494:.././crypto/mbedtls//library/bignum.c ****     }
1495:.././crypto/mbedtls//library/bignum.c **** 
1496:.././crypto/mbedtls//library/bignum.c ****     if( b == 2 )
1497:.././crypto/mbedtls//library/bignum.c ****     {
1498:.././crypto/mbedtls//library/bignum.c ****         *r = A->p[0] & 1;
1499:.././crypto/mbedtls//library/bignum.c ****         return( 0 );
1500:.././crypto/mbedtls//library/bignum.c ****     }
1501:.././crypto/mbedtls//library/bignum.c **** 
1502:.././crypto/mbedtls//library/bignum.c ****     /*
1503:.././crypto/mbedtls//library/bignum.c ****      * general case
1504:.././crypto/mbedtls//library/bignum.c ****      */
1505:.././crypto/mbedtls//library/bignum.c ****     for( i = A->n, y = 0; i > 0; i-- )
 1091              		.loc 1 1505 12 view .LVU79
 1092 0006 0B00     		movs	r3, r1
1476:.././crypto/mbedtls//library/bignum.c **** {
 1093              		.loc 1 1476 5 view .LVU80
 1094 0008 8846     		mov	r8, r1
 1095              		.loc 1 1505 5 is_stmt 1 view .LVU81
 1096              		.loc 1 1505 12 is_stmt 0 view .LVU82
 1097 000a 4968     		ldr	r1, [r1, #4]
 1098              	.LVL27:
 1099              		.loc 1 1505 27 is_stmt 1 view .LVU83
1476:.././crypto/mbedtls//library/bignum.c **** {
 1100              		.loc 1 1476 5 is_stmt 0 view .LVU84
 1101 000c 8146     		mov	r9, r0
 1102 000e 1600     		movs	r6, r2
 1103 0010 80B5     		push	{r7, lr}
 1104              	.LCFI5:
 1105              		.cfi_def_cfa_offset 32
 1106              		.cfi_offset 8, -32
 1107              		.cfi_offset 9, -28
 1108              		.loc 1 1505 5 view .LVU85
 1109 0012 0029     		cmp	r1, #0
 1110 0014 1BD0     		beq	.L29
1506:.././crypto/mbedtls//library/bignum.c ****     {
1507:.././crypto/mbedtls//library/bignum.c ****         x  = A->p[i - 1];
 1111              		.loc 1 1507 15 view .LVU86
 1112 0016 9F68     		ldr	r7, [r3, #8]
 1113 0018 124B     		ldr	r3, .L39
 1114              	.LVL28:
 1115              		.loc 1 1507 15 view .LVU87
 1116 001a CD18     		adds	r5, r1, r3
1505:.././crypto/mbedtls//library/bignum.c ****     {
 1117              		.loc 1 1505 22 view .LVU88
 1118 001c 0021     		movs	r1, #0
 1119              	.LVL29:
1505:.././crypto/mbedtls//library/bignum.c ****     {
 1120              		.loc 1 1505 22 view .LVU89
 1121 001e AD00     		lsls	r5, r5, #2
 1122 0020 7D19     		adds	r5, r7, r5
 1123              	.LVL30:
 1124              	.L30:
 1125              		.loc 1 1507 9 is_stmt 1 view .LVU90
 1126              		.loc 1 1507 12 is_stmt 0 view .LVU91
 1127 0022 2C68     		ldr	r4, [r5]
 1128              	.LVL31:
1508:.././crypto/mbedtls//library/bignum.c ****         y  = ( y << biH ) | ( x >> biH );
 1129              		.loc 1 1508 9 is_stmt 1 view .LVU92
 1130              		.loc 1 1508 18 is_stmt 0 view .LVU93
 1131 0024 0904     		lsls	r1, r1, #16
 1132              	.LVL32:
1509:.././crypto/mbedtls//library/bignum.c ****         z  = y / b;
 1133              		.loc 1 1509 9 is_stmt 1 view .LVU94
1510:.././crypto/mbedtls//library/bignum.c ****         y -= z * b;
 1134              		.loc 1 1510 9 view .LVU95
1511:.././crypto/mbedtls//library/bignum.c **** 
1512:.././crypto/mbedtls//library/bignum.c ****         x <<= biH;
 1135              		.loc 1 1512 9 view .LVU96
1513:.././crypto/mbedtls//library/bignum.c ****         y  = ( y << biH ) | ( x >> biH );
 1136              		.loc 1 1513 9 view .LVU97
1508:.././crypto/mbedtls//library/bignum.c ****         z  = y / b;
 1137              		.loc 1 1508 33 is_stmt 0 view .LVU98
 1138 0026 200C     		lsrs	r0, r4, #16
1508:.././crypto/mbedtls//library/bignum.c ****         z  = y / b;
 1139              		.loc 1 1508 12 view .LVU99
 1140 0028 0843     		orrs	r0, r1
 1141              		.loc 1 1513 18 view .LVU100
 1142 002a 3100     		movs	r1, r6
 1143              	.LVL33:
 1144              		.loc 1 1513 18 view .LVU101
 1145 002c FFF7FEFF 		bl	__aeabi_uidivmod
 1146              	.LVL34:
 1147              		.loc 1 1513 33 view .LVU102
 1148 0030 2004     		lsls	r0, r4, #16
 1149              	.LVL35:
 1150              		.loc 1 1513 18 view .LVU103
 1151 0032 0904     		lsls	r1, r1, #16
 1152              	.LVL36:
1514:.././crypto/mbedtls//library/bignum.c ****         z  = y / b;
 1153              		.loc 1 1514 9 is_stmt 1 view .LVU104
1515:.././crypto/mbedtls//library/bignum.c ****         y -= z * b;
 1154              		.loc 1 1515 9 view .LVU105
1513:.././crypto/mbedtls//library/bignum.c ****         z  = y / b;
 1155              		.loc 1 1513 33 is_stmt 0 view .LVU106
 1156 0034 000C     		lsrs	r0, r0, #16
 1157              	.LVL37:
1513:.././crypto/mbedtls//library/bignum.c ****         z  = y / b;
 1158              		.loc 1 1513 12 view .LVU107
 1159 0036 0843     		orrs	r0, r1
 1160 0038 3100     		movs	r1, r6
 1161              	.LVL38:
1513:.././crypto/mbedtls//library/bignum.c ****         z  = y / b;
 1162              		.loc 1 1513 12 view .LVU108
 1163 003a FFF7FEFF 		bl	__aeabi_uidivmod
 1164              	.LVL39:
1505:.././crypto/mbedtls//library/bignum.c ****     {
 1165              		.loc 1 1505 34 is_stmt 1 view .LVU109
1505:.././crypto/mbedtls//library/bignum.c ****     {
 1166              		.loc 1 1505 27 view .LVU110
 1167 003e 2B00     		movs	r3, r5
 1168 0040 043D     		subs	r5, r5, #4
1505:.././crypto/mbedtls//library/bignum.c ****     {
 1169              		.loc 1 1505 5 is_stmt 0 view .LVU111
 1170 0042 9F42     		cmp	r7, r3
 1171 0044 EDD1     		bne	.L30
1516:.././crypto/mbedtls//library/bignum.c ****     }
1517:.././crypto/mbedtls//library/bignum.c **** 
1518:.././crypto/mbedtls//library/bignum.c ****     /*
1519:.././crypto/mbedtls//library/bignum.c ****      * If A is negative, then the current y represents a negative value.
1520:.././crypto/mbedtls//library/bignum.c ****      * Flipping it to the positive side.
1521:.././crypto/mbedtls//library/bignum.c ****      */
1522:.././crypto/mbedtls//library/bignum.c ****     if( A->s < 0 && y != 0 )
 1172              		.loc 1 1522 5 is_stmt 1 view .LVU112
 1173              		.loc 1 1522 7 is_stmt 0 view .LVU113
 1174 0046 4346     		mov	r3, r8
 1175 0048 1B68     		ldr	r3, [r3]
 1176 004a 002B     		cmp	r3, #0
 1177 004c 06DB     		blt	.L38
 1178              	.LVL40:
 1179              	.L29:
1523:.././crypto/mbedtls//library/bignum.c ****         y = b - y;
1524:.././crypto/mbedtls//library/bignum.c **** 
1525:.././crypto/mbedtls//library/bignum.c ****     *r = y;
 1180              		.loc 1 1525 5 is_stmt 1 view .LVU114
 1181              		.loc 1 1525 8 is_stmt 0 view .LVU115
 1182 004e 4B46     		mov	r3, r9
1526:.././crypto/mbedtls//library/bignum.c **** 
1527:.././crypto/mbedtls//library/bignum.c ****     return( 0 );
1528:.././crypto/mbedtls//library/bignum.c **** }
 1183              		.loc 1 1528 1 view .LVU116
 1184 0050 0020     		movs	r0, #0
 1185              		@ sp needed
1525:.././crypto/mbedtls//library/bignum.c **** 
 1186              		.loc 1 1525 8 view .LVU117
 1187 0052 1960     		str	r1, [r3]
1527:.././crypto/mbedtls//library/bignum.c **** }
 1188              		.loc 1 1527 5 is_stmt 1 view .LVU118
 1189              	.LVL41:
 1190              	.LVL42:
 1191              	.LVL43:
 1192              		.loc 1 1528 1 is_stmt 0 view .LVU119
 1193 0054 0CBC     		pop	{r2, r3}
 1194 0056 9046     		mov	r8, r2
 1195 0058 9946     		mov	r9, r3
 1196 005a F8BD     		pop	{r3, r4, r5, r6, r7, pc}
 1197              	.LVL44:
 1198              	.L38:
1522:.././crypto/mbedtls//library/bignum.c ****         y = b - y;
 1199              		.loc 1 1522 18 view .LVU120
 1200 005c 0029     		cmp	r1, #0
 1201 005e F6D0     		beq	.L29
1523:.././crypto/mbedtls//library/bignum.c **** 
 1202              		.loc 1 1523 9 is_stmt 1 view .LVU121
1523:.././crypto/mbedtls//library/bignum.c **** 
 1203              		.loc 1 1523 11 is_stmt 0 view .LVU122
 1204 0060 711A     		subs	r1, r6, r1
 1205              	.LVL45:
1523:.././crypto/mbedtls//library/bignum.c **** 
 1206              		.loc 1 1523 11 view .LVU123
 1207 0062 F4E7     		b	.L29
 1208              	.L40:
 1209              		.align	2
 1210              	.L39:
 1211 0064 FFFFFF3F 		.word	1073741823
 1212              		.cfi_endproc
 1213              	.LFE60:
 1215              		.section	.text.mbedtls_mpi_init,"ax",%progbits
 1216              		.align	1
 1217              		.p2align 2,,3
 1218              		.global	mbedtls_mpi_init
 1219              		.syntax unified
 1220              		.code	16
 1221              		.thumb_func
 1222              		.fpu softvfp
 1224              	mbedtls_mpi_init:
 1225              	.LVL46:
 1226              	.LFB4:
  83:.././crypto/mbedtls//library/bignum.c ****     if( X == NULL )
 1227              		.loc 1 83 1 is_stmt 1 view -0
 1228              		.cfi_startproc
 1229              		@ args = 0, pretend = 0, frame = 0
 1230              		@ frame_needed = 0, uses_anonymous_args = 0
 1231              		@ link register save eliminated.
  84:.././crypto/mbedtls//library/bignum.c ****         return;
 1232              		.loc 1 84 5 view .LVU125
  84:.././crypto/mbedtls//library/bignum.c ****         return;
 1233              		.loc 1 84 7 is_stmt 0 view .LVU126
 1234 0000 0028     		cmp	r0, #0
 1235 0002 04D0     		beq	.L41
  87:.././crypto/mbedtls//library/bignum.c ****     X->n = 0;
 1236              		.loc 1 87 5 is_stmt 1 view .LVU127
  87:.././crypto/mbedtls//library/bignum.c ****     X->n = 0;
 1237              		.loc 1 87 10 is_stmt 0 view .LVU128
 1238 0004 0123     		movs	r3, #1
 1239 0006 0360     		str	r3, [r0]
  88:.././crypto/mbedtls//library/bignum.c ****     X->p = NULL;
 1240              		.loc 1 88 5 is_stmt 1 view .LVU129
  88:.././crypto/mbedtls//library/bignum.c ****     X->p = NULL;
 1241              		.loc 1 88 10 is_stmt 0 view .LVU130
 1242 0008 0023     		movs	r3, #0
 1243 000a 4360     		str	r3, [r0, #4]
  89:.././crypto/mbedtls//library/bignum.c **** }
 1244              		.loc 1 89 5 is_stmt 1 view .LVU131
  89:.././crypto/mbedtls//library/bignum.c **** }
 1245              		.loc 1 89 10 is_stmt 0 view .LVU132
 1246 000c 8360     		str	r3, [r0, #8]
 1247              	.L41:
  90:.././crypto/mbedtls//library/bignum.c **** 
 1248              		.loc 1 90 1 view .LVU133
 1249              		@ sp needed
 1250 000e 7047     		bx	lr
 1251              		.cfi_endproc
 1252              	.LFE4:
 1254              		.section	.text.mbedtls_mpi_free,"ax",%progbits
 1255              		.align	1
 1256              		.p2align 2,,3
 1257              		.global	mbedtls_mpi_free
 1258              		.syntax unified
 1259              		.code	16
 1260              		.thumb_func
 1261              		.fpu softvfp
 1263              	mbedtls_mpi_free:
 1264              	.LVL47:
 1265              	.LFB5:
  96:.././crypto/mbedtls//library/bignum.c ****     if( X == NULL )
 1266              		.loc 1 96 1 is_stmt 1 view -0
 1267              		.cfi_startproc
 1268              		@ args = 0, pretend = 0, frame = 0
 1269              		@ frame_needed = 0, uses_anonymous_args = 0
  97:.././crypto/mbedtls//library/bignum.c ****         return;
 1270              		.loc 1 97 5 view .LVU135
  96:.././crypto/mbedtls//library/bignum.c ****     if( X == NULL )
 1271              		.loc 1 96 1 is_stmt 0 view .LVU136
 1272 0000 70B5     		push	{r4, r5, r6, lr}
 1273              	.LCFI6:
 1274              		.cfi_def_cfa_offset 16
 1275              		.cfi_offset 4, -16
 1276              		.cfi_offset 5, -12
 1277              		.cfi_offset 6, -8
 1278              		.cfi_offset 14, -4
  96:.././crypto/mbedtls//library/bignum.c ****     if( X == NULL )
 1279              		.loc 1 96 1 view .LVU137
 1280 0002 041E     		subs	r4, r0, #0
  97:.././crypto/mbedtls//library/bignum.c ****         return;
 1281              		.loc 1 97 7 view .LVU138
 1282 0004 13D0     		beq	.L46
 100:.././crypto/mbedtls//library/bignum.c ****     {
 1283              		.loc 1 100 5 is_stmt 1 view .LVU139
 100:.././crypto/mbedtls//library/bignum.c ****     {
 1284              		.loc 1 100 10 is_stmt 0 view .LVU140
 1285 0006 8068     		ldr	r0, [r0, #8]
 1286              	.LVL48:
 100:.././crypto/mbedtls//library/bignum.c ****     {
 1287              		.loc 1 100 7 view .LVU141
 1288 0008 0028     		cmp	r0, #0
 1289 000a 0BD0     		beq	.L48
 102:.././crypto/mbedtls//library/bignum.c ****         mbedtls_free( X->p );
 1290              		.loc 1 102 9 is_stmt 1 view .LVU142
 1291 000c 6368     		ldr	r3, [r4, #4]
 1292              	.LVL49:
 1293              	.LBB173:
 1294              	.LBI173:
  62:.././crypto/mbedtls//library/bignum.c ****     volatile mbedtls_mpi_uint *p = v; while( n-- ) *p++ = 0;
 1295              		.loc 1 62 13 view .LVU143
 1296              	.LBB174:
  63:.././crypto/mbedtls//library/bignum.c **** }
 1297              		.loc 1 63 5 view .LVU144
  63:.././crypto/mbedtls//library/bignum.c **** }
 1298              		.loc 1 63 39 view .LVU145
  63:.././crypto/mbedtls//library/bignum.c **** }
 1299              		.loc 1 63 44 view .LVU146
  63:.././crypto/mbedtls//library/bignum.c **** }
 1300              		.loc 1 63 47 is_stmt 0 view .LVU147
 1301 000e 5A1E     		subs	r2, r3, #1
 1302              	.LVL50:
  63:.././crypto/mbedtls//library/bignum.c **** }
 1303              		.loc 1 63 44 view .LVU148
 1304 0010 002B     		cmp	r3, #0
 1305 0012 05D0     		beq	.L49
 1306 0014 0100     		movs	r1, r0
  63:.././crypto/mbedtls//library/bignum.c **** }
 1307              		.loc 1 63 57 view .LVU149
 1308 0016 0025     		movs	r5, #0
 1309              	.LVL51:
 1310              	.L50:
  63:.././crypto/mbedtls//library/bignum.c **** }
 1311              		.loc 1 63 52 is_stmt 1 view .LVU150
  63:.././crypto/mbedtls//library/bignum.c **** }
 1312              		.loc 1 63 57 is_stmt 0 view .LVU151
 1313 0018 0D60     		str	r5, [r1]
 1314 001a 0431     		adds	r1, r1, #4
 1315              	.LVL52:
  63:.././crypto/mbedtls//library/bignum.c **** }
 1316              		.loc 1 63 44 is_stmt 1 view .LVU152
  63:.././crypto/mbedtls//library/bignum.c **** }
 1317              		.loc 1 63 44 is_stmt 0 view .LVU153
 1318 001c 013A     		subs	r2, r2, #1
 1319 001e FBD2     		bcs	.L50
 1320              	.LVL53:
 1321              	.L49:
  63:.././crypto/mbedtls//library/bignum.c **** }
 1322              		.loc 1 63 44 view .LVU154
 1323              	.LBE174:
 1324              	.LBE173:
 103:.././crypto/mbedtls//library/bignum.c ****     }
 1325              		.loc 1 103 9 is_stmt 1 view .LVU155
 1326 0020 FFF7FEFF 		bl	free
 1327              	.LVL54:
 1328              	.L48:
 106:.././crypto/mbedtls//library/bignum.c ****     X->n = 0;
 1329              		.loc 1 106 5 view .LVU156
 106:.././crypto/mbedtls//library/bignum.c ****     X->n = 0;
 1330              		.loc 1 106 10 is_stmt 0 view .LVU157
 1331 0024 0123     		movs	r3, #1
 1332 0026 2360     		str	r3, [r4]
 107:.././crypto/mbedtls//library/bignum.c ****     X->p = NULL;
 1333              		.loc 1 107 5 is_stmt 1 view .LVU158
 107:.././crypto/mbedtls//library/bignum.c ****     X->p = NULL;
 1334              		.loc 1 107 10 is_stmt 0 view .LVU159
 1335 0028 0023     		movs	r3, #0
 1336 002a 6360     		str	r3, [r4, #4]
 108:.././crypto/mbedtls//library/bignum.c **** }
 1337              		.loc 1 108 5 is_stmt 1 view .LVU160
 108:.././crypto/mbedtls//library/bignum.c **** }
 1338              		.loc 1 108 10 is_stmt 0 view .LVU161
 1339 002c A360     		str	r3, [r4, #8]
 1340              	.L46:
 109:.././crypto/mbedtls//library/bignum.c **** 
 1341              		.loc 1 109 1 view .LVU162
 1342              		@ sp needed
 1343              	.LVL55:
 109:.././crypto/mbedtls//library/bignum.c **** 
 1344              		.loc 1 109 1 view .LVU163
 1345 002e 70BD     		pop	{r4, r5, r6, pc}
 1346              		.cfi_endproc
 1347              	.LFE5:
 1349              		.section	.text.mbedtls_mpi_grow,"ax",%progbits
 1350              		.align	1
 1351              		.p2align 2,,3
 1352              		.global	mbedtls_mpi_grow
 1353              		.syntax unified
 1354              		.code	16
 1355              		.thumb_func
 1356              		.fpu softvfp
 1358              	mbedtls_mpi_grow:
 1359              	.LVL56:
 1360              	.LFB6:
 115:.././crypto/mbedtls//library/bignum.c ****     mbedtls_mpi_uint *p;
 1361              		.loc 1 115 1 is_stmt 1 view -0
 1362              		.cfi_startproc
 1363              		@ args = 0, pretend = 0, frame = 0
 1364              		@ frame_needed = 0, uses_anonymous_args = 0
 116:.././crypto/mbedtls//library/bignum.c **** 
 1365              		.loc 1 116 5 view .LVU165
 118:.././crypto/mbedtls//library/bignum.c ****         return( MBEDTLS_ERR_MPI_ALLOC_FAILED );
 1366              		.loc 1 118 5 view .LVU166
 115:.././crypto/mbedtls//library/bignum.c ****     mbedtls_mpi_uint *p;
 1367              		.loc 1 115 1 is_stmt 0 view .LVU167
 1368 0000 F0B5     		push	{r4, r5, r6, r7, lr}
 1369              	.LCFI7:
 1370              		.cfi_def_cfa_offset 20
 1371              		.cfi_offset 4, -20
 1372              		.cfi_offset 5, -16
 1373              		.cfi_offset 6, -12
 1374              		.cfi_offset 7, -8
 1375              		.cfi_offset 14, -4
 1376 0002 C646     		mov	lr, r8
 118:.././crypto/mbedtls//library/bignum.c ****         return( MBEDTLS_ERR_MPI_ALLOC_FAILED );
 1377              		.loc 1 118 7 view .LVU168
 1378 0004 174B     		ldr	r3, .L80
 115:.././crypto/mbedtls//library/bignum.c ****     mbedtls_mpi_uint *p;
 1379              		.loc 1 115 1 view .LVU169
 1380 0006 0500     		movs	r5, r0
 1381 0008 0C00     		movs	r4, r1
 1382 000a 00B5     		push	{lr}
 1383              	.LCFI8:
 1384              		.cfi_def_cfa_offset 24
 1385              		.cfi_offset 8, -24
 118:.././crypto/mbedtls//library/bignum.c ****         return( MBEDTLS_ERR_MPI_ALLOC_FAILED );
 1386              		.loc 1 118 7 view .LVU170
 1387 000c 9942     		cmp	r1, r3
 1388 000e 26D8     		bhi	.L64
 121:.././crypto/mbedtls//library/bignum.c ****     {
 1389              		.loc 1 121 5 is_stmt 1 view .LVU171
 121:.././crypto/mbedtls//library/bignum.c ****     {
 1390              		.loc 1 121 10 is_stmt 0 view .LVU172
 1391 0010 4368     		ldr	r3, [r0, #4]
 137:.././crypto/mbedtls//library/bignum.c **** }
 1392              		.loc 1 137 11 view .LVU173
 1393 0012 0020     		movs	r0, #0
 1394              	.LVL57:
 121:.././crypto/mbedtls//library/bignum.c ****     {
 1395              		.loc 1 121 10 view .LVU174
 1396 0014 9846     		mov	r8, r3
 121:.././crypto/mbedtls//library/bignum.c ****     {
 1397              		.loc 1 121 7 view .LVU175
 1398 0016 8B42     		cmp	r3, r1
 1399 0018 02D3     		bcc	.L79
 1400              	.LVL58:
 1401              	.L61:
 138:.././crypto/mbedtls//library/bignum.c **** 
 1402              		.loc 1 138 1 view .LVU176
 1403              		@ sp needed
 1404              	.LVL59:
 1405              	.LVL60:
 138:.././crypto/mbedtls//library/bignum.c **** 
 1406              		.loc 1 138 1 view .LVU177
 1407 001a 04BC     		pop	{r2}
 1408 001c 9046     		mov	r8, r2
 1409 001e F0BD     		pop	{r4, r5, r6, r7, pc}
 1410              	.LVL61:
 1411              	.L79:
 123:.././crypto/mbedtls//library/bignum.c ****             return( MBEDTLS_ERR_MPI_ALLOC_FAILED );
 1412              		.loc 1 123 9 is_stmt 1 view .LVU178
 123:.././crypto/mbedtls//library/bignum.c ****             return( MBEDTLS_ERR_MPI_ALLOC_FAILED );
 1413              		.loc 1 123 38 is_stmt 0 view .LVU179
 1414 0020 0421     		movs	r1, #4
 1415              	.LVL62:
 123:.././crypto/mbedtls//library/bignum.c ****             return( MBEDTLS_ERR_MPI_ALLOC_FAILED );
 1416              		.loc 1 123 38 view .LVU180
 1417 0022 2000     		movs	r0, r4
 1418 0024 FFF7FEFF 		bl	calloc
 1419              	.LVL63:
 1420 0028 061E     		subs	r6, r0, #0
 1421              	.LVL64:
 123:.././crypto/mbedtls//library/bignum.c ****             return( MBEDTLS_ERR_MPI_ALLOC_FAILED );
 1422              		.loc 1 123 11 view .LVU181
 1423 002a 18D0     		beq	.L64
 126:.././crypto/mbedtls//library/bignum.c ****         {
 1424              		.loc 1 126 9 is_stmt 1 view .LVU182
 126:.././crypto/mbedtls//library/bignum.c ****         {
 1425              		.loc 1 126 14 is_stmt 0 view .LVU183
 1426 002c AF68     		ldr	r7, [r5, #8]
 126:.././crypto/mbedtls//library/bignum.c ****         {
 1427              		.loc 1 126 11 view .LVU184
 1428 002e 002F     		cmp	r7, #0
 1429 0030 11D0     		beq	.L65
 128:.././crypto/mbedtls//library/bignum.c ****             mbedtls_mpi_zeroize( X->p, X->n );
 1430              		.loc 1 128 13 is_stmt 1 view .LVU185
 1431 0032 4346     		mov	r3, r8
 1432 0034 3900     		movs	r1, r7
 1433 0036 9A00     		lsls	r2, r3, #2
 1434 0038 FFF7FEFF 		bl	memcpy
 1435              	.LVL65:
 129:.././crypto/mbedtls//library/bignum.c ****             mbedtls_free( X->p );
 1436              		.loc 1 129 13 view .LVU186
 1437              	.LBB175:
 1438              	.LBI175:
  62:.././crypto/mbedtls//library/bignum.c ****     volatile mbedtls_mpi_uint *p = v; while( n-- ) *p++ = 0;
 1439              		.loc 1 62 13 view .LVU187
 1440              	.LBB176:
  63:.././crypto/mbedtls//library/bignum.c **** }
 1441              		.loc 1 63 5 view .LVU188
  63:.././crypto/mbedtls//library/bignum.c **** }
 1442              		.loc 1 63 39 view .LVU189
  63:.././crypto/mbedtls//library/bignum.c **** }
 1443              		.loc 1 63 44 view .LVU190
  63:.././crypto/mbedtls//library/bignum.c **** }
 1444              		.loc 1 63 47 is_stmt 0 view .LVU191
 1445 003c 4346     		mov	r3, r8
 1446 003e 5A1E     		subs	r2, r3, #1
 1447              	.LVL66:
  63:.././crypto/mbedtls//library/bignum.c **** }
 1448              		.loc 1 63 44 view .LVU192
 1449 0040 002B     		cmp	r3, #0
 1450 0042 05D0     		beq	.L66
 1451 0044 3900     		movs	r1, r7
  63:.././crypto/mbedtls//library/bignum.c **** }
 1452              		.loc 1 63 57 view .LVU193
 1453 0046 0020     		movs	r0, #0
 1454              	.LVL67:
 1455              	.L67:
  63:.././crypto/mbedtls//library/bignum.c **** }
 1456              		.loc 1 63 52 is_stmt 1 view .LVU194
  63:.././crypto/mbedtls//library/bignum.c **** }
 1457              		.loc 1 63 57 is_stmt 0 view .LVU195
 1458 0048 0860     		str	r0, [r1]
 1459 004a 0431     		adds	r1, r1, #4
 1460              	.LVL68:
  63:.././crypto/mbedtls//library/bignum.c **** }
 1461              		.loc 1 63 44 is_stmt 1 view .LVU196
  63:.././crypto/mbedtls//library/bignum.c **** }
 1462              		.loc 1 63 44 is_stmt 0 view .LVU197
 1463 004c 013A     		subs	r2, r2, #1
 1464 004e FBD2     		bcs	.L67
 1465              	.LVL69:
 1466              	.L66:
  63:.././crypto/mbedtls//library/bignum.c **** }
 1467              		.loc 1 63 44 view .LVU198
 1468              	.LBE176:
 1469              	.LBE175:
 130:.././crypto/mbedtls//library/bignum.c ****         }
 1470              		.loc 1 130 13 is_stmt 1 view .LVU199
 1471 0050 3800     		movs	r0, r7
 1472 0052 FFF7FEFF 		bl	free
 1473              	.LVL70:
 1474              	.L65:
 133:.././crypto/mbedtls//library/bignum.c ****         X->p = p;
 1475              		.loc 1 133 9 view .LVU200
 137:.././crypto/mbedtls//library/bignum.c **** }
 1476              		.loc 1 137 11 is_stmt 0 view .LVU201
 1477 0056 0020     		movs	r0, #0
 133:.././crypto/mbedtls//library/bignum.c ****         X->p = p;
 1478              		.loc 1 133 14 view .LVU202
 1479 0058 6C60     		str	r4, [r5, #4]
 134:.././crypto/mbedtls//library/bignum.c ****     }
 1480              		.loc 1 134 9 is_stmt 1 view .LVU203
 134:.././crypto/mbedtls//library/bignum.c ****     }
 1481              		.loc 1 134 14 is_stmt 0 view .LVU204
 1482 005a AE60     		str	r6, [r5, #8]
 1483 005c DDE7     		b	.L61
 1484              	.LVL71:
 1485              	.L64:
 119:.././crypto/mbedtls//library/bignum.c **** 
 1486              		.loc 1 119 15 view .LVU205
 1487 005e 1020     		movs	r0, #16
 1488 0060 4042     		rsbs	r0, r0, #0
 1489 0062 DAE7     		b	.L61
 1490              	.L81:
 1491              		.align	2
 1492              	.L80:
 1493 0064 10270000 		.word	10000
 1494              		.cfi_endproc
 1495              	.LFE6:
 1497              		.section	.text.mbedtls_mpi_shrink,"ax",%progbits
 1498              		.align	1
 1499              		.p2align 2,,3
 1500              		.global	mbedtls_mpi_shrink
 1501              		.syntax unified
 1502              		.code	16
 1503              		.thumb_func
 1504              		.fpu softvfp
 1506              	mbedtls_mpi_shrink:
 1507              	.LVL72:
 1508              	.LFB7:
 145:.././crypto/mbedtls//library/bignum.c ****     mbedtls_mpi_uint *p;
 1509              		.loc 1 145 1 is_stmt 1 view -0
 1510              		.cfi_startproc
 1511              		@ args = 0, pretend = 0, frame = 0
 1512              		@ frame_needed = 0, uses_anonymous_args = 0
 146:.././crypto/mbedtls//library/bignum.c ****     size_t i;
 1513              		.loc 1 146 5 view .LVU207
 147:.././crypto/mbedtls//library/bignum.c **** 
 1514              		.loc 1 147 5 view .LVU208
 150:.././crypto/mbedtls//library/bignum.c ****         return( mbedtls_mpi_grow( X, nblimbs ) );
 1515              		.loc 1 150 5 view .LVU209
 145:.././crypto/mbedtls//library/bignum.c ****     mbedtls_mpi_uint *p;
 1516              		.loc 1 145 1 is_stmt 0 view .LVU210
 1517 0000 F8B5     		push	{r3, r4, r5, r6, r7, lr}
 1518              	.LCFI9:
 1519              		.cfi_def_cfa_offset 24
 1520              		.cfi_offset 3, -24
 1521              		.cfi_offset 4, -20
 1522              		.cfi_offset 5, -16
 1523              		.cfi_offset 6, -12
 1524              		.cfi_offset 7, -8
 1525              		.cfi_offset 14, -4
 1526 0002 4746     		mov	r7, r8
 1527 0004 CE46     		mov	lr, r9
 1528 0006 80B5     		push	{r7, lr}
 1529              	.LCFI10:
 1530              		.cfi_def_cfa_offset 32
 1531              		.cfi_offset 8, -32
 1532              		.cfi_offset 9, -28
 150:.././crypto/mbedtls//library/bignum.c ****         return( mbedtls_mpi_grow( X, nblimbs ) );
 1533              		.loc 1 150 10 view .LVU211
 1534 0008 4768     		ldr	r7, [r0, #4]
 145:.././crypto/mbedtls//library/bignum.c ****     mbedtls_mpi_uint *p;
 1535              		.loc 1 145 1 view .LVU212
 1536 000a 0600     		movs	r6, r0
 150:.././crypto/mbedtls//library/bignum.c ****         return( mbedtls_mpi_grow( X, nblimbs ) );
 1537              		.loc 1 150 7 view .LVU213
 1538 000c 8F42     		cmp	r7, r1
 1539 000e 3BD9     		bls	.L107
 153:.././crypto/mbedtls//library/bignum.c ****         if( X->p[i] != 0 )
 1540              		.loc 1 153 5 is_stmt 1 view .LVU214
 153:.././crypto/mbedtls//library/bignum.c ****         if( X->p[i] != 0 )
 1541              		.loc 1 153 12 is_stmt 0 view .LVU215
 1542 0010 7D1E     		subs	r5, r7, #1
 1543              	.LVL73:
 153:.././crypto/mbedtls//library/bignum.c ****         if( X->p[i] != 0 )
 1544              		.loc 1 153 24 is_stmt 1 view .LVU216
 153:.././crypto/mbedtls//library/bignum.c ****         if( X->p[i] != 0 )
 1545              		.loc 1 153 5 is_stmt 0 view .LVU217
 1546 0012 012F     		cmp	r7, #1
 1547 0014 3BD0     		beq	.L85
 154:.././crypto/mbedtls//library/bignum.c ****             break;
 1548              		.loc 1 154 14 view .LVU218
 1549 0016 2C00     		movs	r4, r5
 1550 0018 8068     		ldr	r0, [r0, #8]
 1551              	.LVL74:
 154:.././crypto/mbedtls//library/bignum.c ****             break;
 1552              		.loc 1 154 14 view .LVU219
 1553 001a 02E0     		b	.L88
 1554              	.LVL75:
 1555              	.L86:
 153:.././crypto/mbedtls//library/bignum.c ****         if( X->p[i] != 0 )
 1556              		.loc 1 153 31 is_stmt 1 discriminator 2 view .LVU220
 153:.././crypto/mbedtls//library/bignum.c ****         if( X->p[i] != 0 )
 1557              		.loc 1 153 32 is_stmt 0 discriminator 2 view .LVU221
 1558 001c 013C     		subs	r4, r4, #1
 1559              	.LVL76:
 153:.././crypto/mbedtls//library/bignum.c ****         if( X->p[i] != 0 )
 1560              		.loc 1 153 24 is_stmt 1 discriminator 2 view .LVU222
 153:.././crypto/mbedtls//library/bignum.c ****         if( X->p[i] != 0 )
 1561              		.loc 1 153 5 is_stmt 0 discriminator 2 view .LVU223
 1562 001e 002C     		cmp	r4, #0
 1563 0020 03D0     		beq	.L106
 1564              	.L88:
 154:.././crypto/mbedtls//library/bignum.c ****             break;
 1565              		.loc 1 154 9 is_stmt 1 view .LVU224
 154:.././crypto/mbedtls//library/bignum.c ****             break;
 1566              		.loc 1 154 17 is_stmt 0 view .LVU225
 1567 0022 A200     		lsls	r2, r4, #2
 154:.././crypto/mbedtls//library/bignum.c ****             break;
 1568              		.loc 1 154 11 view .LVU226
 1569 0024 8258     		ldr	r2, [r0, r2]
 1570 0026 002A     		cmp	r2, #0
 1571 0028 F8D0     		beq	.L86
 1572              	.L106:
 154:.././crypto/mbedtls//library/bignum.c ****             break;
 1573              		.loc 1 154 11 view .LVU227
 1574 002a 0134     		adds	r4, r4, #1
 1575              	.LVL77:
 156:.././crypto/mbedtls//library/bignum.c **** 
 1576              		.loc 1 156 5 is_stmt 1 view .LVU228
 158:.././crypto/mbedtls//library/bignum.c ****         i = nblimbs;
 1577              		.loc 1 158 5 view .LVU229
 1578 002c 8C42     		cmp	r4, r1
 1579 002e 20D3     		bcc	.L108
 1580              	.LVL78:
 161:.././crypto/mbedtls//library/bignum.c ****         return( MBEDTLS_ERR_MPI_ALLOC_FAILED );
 1581              		.loc 1 161 5 view .LVU230
 161:.././crypto/mbedtls//library/bignum.c ****         return( MBEDTLS_ERR_MPI_ALLOC_FAILED );
 1582              		.loc 1 161 34 is_stmt 0 view .LVU231
 1583 0030 0421     		movs	r1, #4
 1584              	.LVL79:
 161:.././crypto/mbedtls//library/bignum.c ****         return( MBEDTLS_ERR_MPI_ALLOC_FAILED );
 1585              		.loc 1 161 34 view .LVU232
 1586 0032 2000     		movs	r0, r4
 1587 0034 FFF7FEFF 		bl	calloc
 1588              	.LVL80:
 1589 0038 8046     		mov	r8, r0
 1590              	.LVL81:
 161:.././crypto/mbedtls//library/bignum.c ****         return( MBEDTLS_ERR_MPI_ALLOC_FAILED );
 1591              		.loc 1 161 7 view .LVU233
 1592 003a 0028     		cmp	r0, #0
 1593 003c 21D0     		beq	.L98
 1594              	.L105:
 164:.././crypto/mbedtls//library/bignum.c ****     {
 1595              		.loc 1 164 5 is_stmt 1 view .LVU234
 164:.././crypto/mbedtls//library/bignum.c ****     {
 1596              		.loc 1 164 10 is_stmt 0 view .LVU235
 1597 003e B368     		ldr	r3, [r6, #8]
 1598 0040 9946     		mov	r9, r3
 1599              	.L93:
 166:.././crypto/mbedtls//library/bignum.c ****         mbedtls_mpi_zeroize( X->p, X->n );
 1600              		.loc 1 166 9 is_stmt 1 view .LVU236
 1601 0042 4946     		mov	r1, r9
 1602 0044 A200     		lsls	r2, r4, #2
 1603 0046 4046     		mov	r0, r8
 1604              	.LVL82:
 166:.././crypto/mbedtls//library/bignum.c ****         mbedtls_mpi_zeroize( X->p, X->n );
 1605              		.loc 1 166 9 is_stmt 0 view .LVU237
 1606 0048 FFF7FEFF 		bl	memcpy
 1607              	.LVL83:
 167:.././crypto/mbedtls//library/bignum.c ****         mbedtls_free( X->p );
 1608              		.loc 1 167 9 is_stmt 1 view .LVU238
 1609              	.LBB177:
 1610              	.LBI177:
  62:.././crypto/mbedtls//library/bignum.c ****     volatile mbedtls_mpi_uint *p = v; while( n-- ) *p++ = 0;
 1611              		.loc 1 62 13 view .LVU239
 1612              	.LBB178:
  63:.././crypto/mbedtls//library/bignum.c **** }
 1613              		.loc 1 63 5 view .LVU240
  63:.././crypto/mbedtls//library/bignum.c **** }
 1614              		.loc 1 63 39 view .LVU241
  63:.././crypto/mbedtls//library/bignum.c **** }
 1615              		.loc 1 63 44 view .LVU242
  63:.././crypto/mbedtls//library/bignum.c **** }
 1616              		.loc 1 63 44 is_stmt 0 view .LVU243
 1617 004c 4A46     		mov	r2, r9
  63:.././crypto/mbedtls//library/bignum.c **** }
 1618              		.loc 1 63 57 view .LVU244
 1619 004e 0021     		movs	r1, #0
  63:.././crypto/mbedtls//library/bignum.c **** }
 1620              		.loc 1 63 44 view .LVU245
 1621 0050 002F     		cmp	r7, #0
 1622 0052 03D0     		beq	.L92
 1623              	.LVL84:
 1624              	.L91:
  63:.././crypto/mbedtls//library/bignum.c **** }
 1625              		.loc 1 63 52 is_stmt 1 view .LVU246
  63:.././crypto/mbedtls//library/bignum.c **** }
 1626              		.loc 1 63 57 is_stmt 0 view .LVU247
 1627 0054 1160     		str	r1, [r2]
 1628 0056 0432     		adds	r2, r2, #4
 1629              	.LVL85:
  63:.././crypto/mbedtls//library/bignum.c **** }
 1630              		.loc 1 63 44 is_stmt 1 view .LVU248
  63:.././crypto/mbedtls//library/bignum.c **** }
 1631              		.loc 1 63 44 is_stmt 0 view .LVU249
 1632 0058 013D     		subs	r5, r5, #1
 1633 005a FBD2     		bcs	.L91
 1634              	.LVL86:
 1635              	.L92:
  63:.././crypto/mbedtls//library/bignum.c **** }
 1636              		.loc 1 63 44 view .LVU250
 1637              	.LBE178:
 1638              	.LBE177:
 168:.././crypto/mbedtls//library/bignum.c ****     }
 1639              		.loc 1 168 9 is_stmt 1 view .LVU251
 1640 005c 4846     		mov	r0, r9
 1641 005e FFF7FEFF 		bl	free
 1642              	.LVL87:
 1643              	.L90:
 171:.././crypto/mbedtls//library/bignum.c ****     X->p = p;
 1644              		.loc 1 171 5 view .LVU252
 172:.././crypto/mbedtls//library/bignum.c **** 
 1645              		.loc 1 172 10 is_stmt 0 view .LVU253
 1646 0062 4346     		mov	r3, r8
 174:.././crypto/mbedtls//library/bignum.c **** }
 1647              		.loc 1 174 11 view .LVU254
 1648 0064 0020     		movs	r0, #0
 171:.././crypto/mbedtls//library/bignum.c ****     X->p = p;
 1649              		.loc 1 171 10 view .LVU255
 1650 0066 7460     		str	r4, [r6, #4]
 172:.././crypto/mbedtls//library/bignum.c **** 
 1651              		.loc 1 172 5 is_stmt 1 view .LVU256
 172:.././crypto/mbedtls//library/bignum.c **** 
 1652              		.loc 1 172 10 is_stmt 0 view .LVU257
 1653 0068 B360     		str	r3, [r6, #8]
 174:.././crypto/mbedtls//library/bignum.c **** }
 1654              		.loc 1 174 5 is_stmt 1 view .LVU258
 1655              	.LVL88:
 1656              	.L82:
 175:.././crypto/mbedtls//library/bignum.c **** 
 1657              		.loc 1 175 1 is_stmt 0 view .LVU259
 1658              		@ sp needed
 1659              	.LVL89:
 175:.././crypto/mbedtls//library/bignum.c **** 
 1660              		.loc 1 175 1 view .LVU260
 1661 006a 0CBC     		pop	{r2, r3}
 1662 006c 9046     		mov	r8, r2
 1663 006e 9946     		mov	r9, r3
 1664 0070 F8BD     		pop	{r3, r4, r5, r6, r7, pc}
 1665              	.LVL90:
 1666              	.L108:
 175:.././crypto/mbedtls//library/bignum.c **** 
 1667              		.loc 1 175 1 view .LVU261
 1668 0072 0C00     		movs	r4, r1
 1669              	.LVL91:
 161:.././crypto/mbedtls//library/bignum.c ****         return( MBEDTLS_ERR_MPI_ALLOC_FAILED );
 1670              		.loc 1 161 5 is_stmt 1 view .LVU262
 161:.././crypto/mbedtls//library/bignum.c ****         return( MBEDTLS_ERR_MPI_ALLOC_FAILED );
 1671              		.loc 1 161 34 is_stmt 0 view .LVU263
 1672 0074 0421     		movs	r1, #4
 1673              	.LVL92:
 161:.././crypto/mbedtls//library/bignum.c ****         return( MBEDTLS_ERR_MPI_ALLOC_FAILED );
 1674              		.loc 1 161 34 view .LVU264
 1675 0076 2000     		movs	r0, r4
 1676 0078 FFF7FEFF 		bl	calloc
 1677              	.LVL93:
 1678 007c 8046     		mov	r8, r0
 1679              	.LVL94:
 161:.././crypto/mbedtls//library/bignum.c ****         return( MBEDTLS_ERR_MPI_ALLOC_FAILED );
 1680              		.loc 1 161 7 view .LVU265
 1681 007e 0028     		cmp	r0, #0
 1682 0080 DDD1     		bne	.L105
 1683              	.LVL95:
 1684              	.L98:
 162:.././crypto/mbedtls//library/bignum.c **** 
 1685              		.loc 1 162 15 view .LVU266
 1686 0082 1020     		movs	r0, #16
 1687              	.LVL96:
 162:.././crypto/mbedtls//library/bignum.c **** 
 1688              		.loc 1 162 15 view .LVU267
 1689 0084 4042     		rsbs	r0, r0, #0
 1690 0086 F0E7     		b	.L82
 1691              	.LVL97:
 1692              	.L107:
 151:.././crypto/mbedtls//library/bignum.c **** 
 1693              		.loc 1 151 9 is_stmt 1 view .LVU268
 151:.././crypto/mbedtls//library/bignum.c **** 
 1694              		.loc 1 151 17 is_stmt 0 view .LVU269
 1695 0088 FFF7FEFF 		bl	mbedtls_mpi_grow
 1696              	.LVL98:
 151:.././crypto/mbedtls//library/bignum.c **** 
 1697              		.loc 1 151 17 view .LVU270
 1698 008c EDE7     		b	.L82
 1699              	.LVL99:
 1700              	.L85:
 156:.././crypto/mbedtls//library/bignum.c **** 
 1701              		.loc 1 156 5 is_stmt 1 view .LVU271
 158:.././crypto/mbedtls//library/bignum.c ****         i = nblimbs;
 1702              		.loc 1 158 5 view .LVU272
 1703 008e 0C1E     		subs	r4, r1, #0
 1704 0090 00D1     		bne	.L89
 158:.././crypto/mbedtls//library/bignum.c ****         i = nblimbs;
 1705              		.loc 1 158 5 is_stmt 0 view .LVU273
 1706 0092 0134     		adds	r4, r4, #1
 1707              	.L89:
 1708              	.LVL100:
 161:.././crypto/mbedtls//library/bignum.c ****         return( MBEDTLS_ERR_MPI_ALLOC_FAILED );
 1709              		.loc 1 161 5 is_stmt 1 view .LVU274
 161:.././crypto/mbedtls//library/bignum.c ****         return( MBEDTLS_ERR_MPI_ALLOC_FAILED );
 1710              		.loc 1 161 34 is_stmt 0 view .LVU275
 1711 0094 0421     		movs	r1, #4
 1712              	.LVL101:
 161:.././crypto/mbedtls//library/bignum.c ****         return( MBEDTLS_ERR_MPI_ALLOC_FAILED );
 1713              		.loc 1 161 34 view .LVU276
 1714 0096 2000     		movs	r0, r4
 1715              	.LVL102:
 161:.././crypto/mbedtls//library/bignum.c ****         return( MBEDTLS_ERR_MPI_ALLOC_FAILED );
 1716              		.loc 1 161 34 view .LVU277
 1717 0098 FFF7FEFF 		bl	calloc
 1718              	.LVL103:
 1719 009c 8046     		mov	r8, r0
 1720              	.LVL104:
 161:.././crypto/mbedtls//library/bignum.c ****         return( MBEDTLS_ERR_MPI_ALLOC_FAILED );
 1721              		.loc 1 161 7 view .LVU278
 1722 009e 0028     		cmp	r0, #0
 1723 00a0 EFD0     		beq	.L98
 164:.././crypto/mbedtls//library/bignum.c ****     {
 1724              		.loc 1 164 5 is_stmt 1 view .LVU279
 164:.././crypto/mbedtls//library/bignum.c ****     {
 1725              		.loc 1 164 10 is_stmt 0 view .LVU280
 1726 00a2 B368     		ldr	r3, [r6, #8]
 1727 00a4 9946     		mov	r9, r3
 164:.././crypto/mbedtls//library/bignum.c ****     {
 1728              		.loc 1 164 7 view .LVU281
 1729 00a6 002B     		cmp	r3, #0
 1730 00a8 DBD0     		beq	.L90
 1731 00aa CAE7     		b	.L93
 1732              		.cfi_endproc
 1733              	.LFE7:
 1735              		.section	.text.mbedtls_mpi_copy,"ax",%progbits
 1736              		.align	1
 1737              		.p2align 2,,3
 1738              		.global	mbedtls_mpi_copy
 1739              		.syntax unified
 1740              		.code	16
 1741              		.thumb_func
 1742              		.fpu softvfp
 1744              	mbedtls_mpi_copy:
 1745              	.LVL105:
 1746              	.LFB8:
 181:.././crypto/mbedtls//library/bignum.c ****     int ret;
 1747              		.loc 1 181 1 is_stmt 1 view -0
 1748              		.cfi_startproc
 1749              		@ args = 0, pretend = 0, frame = 0
 1750              		@ frame_needed = 0, uses_anonymous_args = 0
 182:.././crypto/mbedtls//library/bignum.c ****     size_t i;
 1751              		.loc 1 182 5 view .LVU283
 183:.././crypto/mbedtls//library/bignum.c **** 
 1752              		.loc 1 183 5 view .LVU284
 185:.././crypto/mbedtls//library/bignum.c ****         return( 0 );
 1753              		.loc 1 185 5 view .LVU285
 181:.././crypto/mbedtls//library/bignum.c ****     int ret;
 1754              		.loc 1 181 1 is_stmt 0 view .LVU286
 1755 0000 F8B5     		push	{r3, r4, r5, r6, r7, lr}
 1756              	.LCFI11:
 1757              		.cfi_def_cfa_offset 24
 1758              		.cfi_offset 3, -24
 1759              		.cfi_offset 4, -20
 1760              		.cfi_offset 5, -16
 1761              		.cfi_offset 6, -12
 1762              		.cfi_offset 7, -8
 1763              		.cfi_offset 14, -4
 181:.././crypto/mbedtls//library/bignum.c ****     int ret;
 1764              		.loc 1 181 1 view .LVU287
 1765 0002 0600     		movs	r6, r0
 1766 0004 0D00     		movs	r5, r1
 185:.././crypto/mbedtls//library/bignum.c ****         return( 0 );
 1767              		.loc 1 185 7 view .LVU288
 1768 0006 8842     		cmp	r0, r1
 1769 0008 26D0     		beq	.L115
 188:.././crypto/mbedtls//library/bignum.c ****     {
 1770              		.loc 1 188 5 is_stmt 1 view .LVU289
 188:.././crypto/mbedtls//library/bignum.c ****     {
 1771              		.loc 1 188 10 is_stmt 0 view .LVU290
 1772 000a 8C68     		ldr	r4, [r1, #8]
 188:.././crypto/mbedtls//library/bignum.c ****     {
 1773              		.loc 1 188 7 view .LVU291
 1774 000c 002C     		cmp	r4, #0
 1775 000e 25D0     		beq	.L118
 194:.././crypto/mbedtls//library/bignum.c ****         if( Y->p[i] != 0 )
 1776              		.loc 1 194 5 is_stmt 1 view .LVU292
 194:.././crypto/mbedtls//library/bignum.c ****         if( Y->p[i] != 0 )
 1777              		.loc 1 194 12 is_stmt 0 view .LVU293
 1778 0010 4B68     		ldr	r3, [r1, #4]
 1779 0012 5A1E     		subs	r2, r3, #1
 1780              	.LVL106:
 194:.././crypto/mbedtls//library/bignum.c ****         if( Y->p[i] != 0 )
 1781              		.loc 1 194 24 is_stmt 1 view .LVU294
 194:.././crypto/mbedtls//library/bignum.c ****         if( Y->p[i] != 0 )
 1782              		.loc 1 194 5 is_stmt 0 view .LVU295
 1783 0014 012B     		cmp	r3, #1
 1784 0016 03D1     		bne	.L114
 1785 0018 1CE0     		b	.L116
 1786              	.L113:
 194:.././crypto/mbedtls//library/bignum.c ****         if( Y->p[i] != 0 )
 1787              		.loc 1 194 31 is_stmt 1 discriminator 2 view .LVU296
 194:.././crypto/mbedtls//library/bignum.c ****         if( Y->p[i] != 0 )
 1788              		.loc 1 194 32 is_stmt 0 discriminator 2 view .LVU297
 1789 001a 013A     		subs	r2, r2, #1
 1790              	.LVL107:
 194:.././crypto/mbedtls//library/bignum.c ****         if( Y->p[i] != 0 )
 1791              		.loc 1 194 24 is_stmt 1 discriminator 2 view .LVU298
 194:.././crypto/mbedtls//library/bignum.c ****         if( Y->p[i] != 0 )
 1792              		.loc 1 194 5 is_stmt 0 discriminator 2 view .LVU299
 1793 001c 002A     		cmp	r2, #0
 1794 001e 19D0     		beq	.L116
 1795              	.L114:
 195:.././crypto/mbedtls//library/bignum.c ****             break;
 1796              		.loc 1 195 9 is_stmt 1 view .LVU300
 195:.././crypto/mbedtls//library/bignum.c ****             break;
 1797              		.loc 1 195 17 is_stmt 0 view .LVU301
 1798 0020 9300     		lsls	r3, r2, #2
 195:.././crypto/mbedtls//library/bignum.c ****             break;
 1799              		.loc 1 195 11 view .LVU302
 1800 0022 E358     		ldr	r3, [r4, r3]
 1801 0024 002B     		cmp	r3, #0
 1802 0026 F8D0     		beq	.L113
 195:.././crypto/mbedtls//library/bignum.c ****             break;
 1803              		.loc 1 195 11 view .LVU303
 1804 0028 541C     		adds	r4, r2, #1
 1805              	.L112:
 197:.././crypto/mbedtls//library/bignum.c **** 
 1806              		.loc 1 197 5 is_stmt 1 view .LVU304
 1807              	.LVL108:
 199:.././crypto/mbedtls//library/bignum.c **** 
 1808              		.loc 1 199 5 view .LVU305
 199:.././crypto/mbedtls//library/bignum.c **** 
 1809              		.loc 1 199 10 is_stmt 0 view .LVU306
 1810 002a 2B68     		ldr	r3, [r5]
 201:.././crypto/mbedtls//library/bignum.c **** 
 1811              		.loc 1 201 5 view .LVU307
 1812 002c 2100     		movs	r1, r4
 1813              	.LVL109:
 201:.././crypto/mbedtls//library/bignum.c **** 
 1814              		.loc 1 201 5 view .LVU308
 1815 002e 3000     		movs	r0, r6
 1816              	.LVL110:
 199:.././crypto/mbedtls//library/bignum.c **** 
 1817              		.loc 1 199 10 view .LVU309
 1818 0030 3360     		str	r3, [r6]
 201:.././crypto/mbedtls//library/bignum.c **** 
 1819              		.loc 1 201 5 is_stmt 1 view .LVU310
 201:.././crypto/mbedtls//library/bignum.c **** 
 1820              		.loc 1 201 5 view .LVU311
 1821 0032 FFF7FEFF 		bl	mbedtls_mpi_grow
 1822              	.LVL111:
 1823 0036 071E     		subs	r7, r0, #0
 1824              	.LVL112:
 201:.././crypto/mbedtls//library/bignum.c **** 
 1825              		.loc 1 201 5 is_stmt 0 view .LVU312
 1826 0038 0AD1     		bne	.L109
 201:.././crypto/mbedtls//library/bignum.c **** 
 1827              		.loc 1 201 5 is_stmt 1 discriminator 2 view .LVU313
 203:.././crypto/mbedtls//library/bignum.c ****     memcpy( X->p, Y->p, i * ciL );
 1828              		.loc 1 203 5 discriminator 2 view .LVU314
 1829 003a 7368     		ldr	r3, [r6, #4]
 1830 003c 0021     		movs	r1, #0
 1831 003e 9A00     		lsls	r2, r3, #2
 1832 0040 B068     		ldr	r0, [r6, #8]
 1833              	.LVL113:
 203:.././crypto/mbedtls//library/bignum.c ****     memcpy( X->p, Y->p, i * ciL );
 1834              		.loc 1 203 5 is_stmt 0 discriminator 2 view .LVU315
 1835 0042 FFF7FEFF 		bl	memset
 1836              	.LVL114:
 204:.././crypto/mbedtls//library/bignum.c **** 
 1837              		.loc 1 204 5 is_stmt 1 discriminator 2 view .LVU316
 1838 0046 B068     		ldr	r0, [r6, #8]
 1839 0048 A968     		ldr	r1, [r5, #8]
 1840 004a A200     		lsls	r2, r4, #2
 1841 004c FFF7FEFF 		bl	memcpy
 1842              	.LVL115:
 1843              	.L109:
 209:.././crypto/mbedtls//library/bignum.c **** 
 1844              		.loc 1 209 1 is_stmt 0 view .LVU317
 1845 0050 3800     		movs	r0, r7
 1846              		@ sp needed
 1847              	.LVL116:
 1848              	.LVL117:
 209:.././crypto/mbedtls//library/bignum.c **** 
 1849              		.loc 1 209 1 view .LVU318
 1850 0052 F8BD     		pop	{r3, r4, r5, r6, r7, pc}
 1851              	.LVL118:
 1852              	.L116:
 194:.././crypto/mbedtls//library/bignum.c ****         if( Y->p[i] != 0 )
 1853              		.loc 1 194 5 view .LVU319
 1854 0054 0124     		movs	r4, #1
 1855 0056 E8E7     		b	.L112
 1856              	.LVL119:
 1857              	.L115:
 186:.././crypto/mbedtls//library/bignum.c **** 
 1858              		.loc 1 186 15 view .LVU320
 1859 0058 0027     		movs	r7, #0
 1860 005a F9E7     		b	.L109
 1861              	.L118:
 190:.././crypto/mbedtls//library/bignum.c ****         return( 0 );
 1862              		.loc 1 190 9 is_stmt 1 view .LVU321
 1863 005c FFF7FEFF 		bl	mbedtls_mpi_free
 1864              	.LVL120:
 191:.././crypto/mbedtls//library/bignum.c ****     }
 1865              		.loc 1 191 9 view .LVU322
 191:.././crypto/mbedtls//library/bignum.c ****     }
 1866              		.loc 1 191 15 is_stmt 0 view .LVU323
 1867 0060 0027     		movs	r7, #0
 1868 0062 F5E7     		b	.L109
 1869              		.cfi_endproc
 1870              	.LFE8:
 1872              		.section	.text.mbedtls_mpi_swap,"ax",%progbits
 1873              		.align	1
 1874              		.p2align 2,,3
 1875              		.global	mbedtls_mpi_swap
 1876              		.syntax unified
 1877              		.code	16
 1878              		.thumb_func
 1879              		.fpu softvfp
 1881              	mbedtls_mpi_swap:
 1882              	.LVL121:
 1883              	.LFB9:
 215:.././crypto/mbedtls//library/bignum.c ****     mbedtls_mpi T;
 1884              		.loc 1 215 1 is_stmt 1 view -0
 1885              		.cfi_startproc
 1886              		@ args = 0, pretend = 0, frame = 16
 1887              		@ frame_needed = 0, uses_anonymous_args = 0
 216:.././crypto/mbedtls//library/bignum.c **** 
 1888              		.loc 1 216 5 view .LVU325
 218:.././crypto/mbedtls//library/bignum.c ****     memcpy(  X,  Y, sizeof( mbedtls_mpi ) );
 1889              		.loc 1 218 5 view .LVU326
 215:.././crypto/mbedtls//library/bignum.c ****     mbedtls_mpi T;
 1890              		.loc 1 215 1 is_stmt 0 view .LVU327
 1891 0000 30B5     		push	{r4, r5, lr}
 1892              	.LCFI12:
 1893              		.cfi_def_cfa_offset 12
 1894              		.cfi_offset 4, -12
 1895              		.cfi_offset 5, -8
 1896              		.cfi_offset 14, -4
 1897 0002 0C00     		movs	r4, r1
 1898 0004 0500     		movs	r5, r0
 1899 0006 85B0     		sub	sp, sp, #20
 1900              	.LCFI13:
 1901              		.cfi_def_cfa_offset 32
 218:.././crypto/mbedtls//library/bignum.c ****     memcpy(  X,  Y, sizeof( mbedtls_mpi ) );
 1902              		.loc 1 218 5 view .LVU328
 1903 0008 0100     		movs	r1, r0
 1904              	.LVL122:
 218:.././crypto/mbedtls//library/bignum.c ****     memcpy(  X,  Y, sizeof( mbedtls_mpi ) );
 1905              		.loc 1 218 5 view .LVU329
 1906 000a 0C22     		movs	r2, #12
 1907 000c 01A8     		add	r0, sp, #4
 1908              	.LVL123:
 218:.././crypto/mbedtls//library/bignum.c ****     memcpy(  X,  Y, sizeof( mbedtls_mpi ) );
 1909              		.loc 1 218 5 view .LVU330
 1910 000e FFF7FEFF 		bl	memcpy
 1911              	.LVL124:
 219:.././crypto/mbedtls//library/bignum.c ****     memcpy(  Y, &T, sizeof( mbedtls_mpi ) );
 1912              		.loc 1 219 5 is_stmt 1 view .LVU331
 1913 0012 2100     		movs	r1, r4
 1914 0014 0C22     		movs	r2, #12
 1915 0016 2800     		movs	r0, r5
 1916 0018 FFF7FEFF 		bl	memcpy
 1917              	.LVL125:
 220:.././crypto/mbedtls//library/bignum.c **** }
 1918              		.loc 1 220 5 view .LVU332
 1919 001c 0C22     		movs	r2, #12
 1920 001e 2000     		movs	r0, r4
 1921 0020 01A9     		add	r1, sp, #4
 1922 0022 FFF7FEFF 		bl	memcpy
 1923              	.LVL126:
 221:.././crypto/mbedtls//library/bignum.c **** 
 1924              		.loc 1 221 1 is_stmt 0 view .LVU333
 1925 0026 05B0     		add	sp, sp, #20
 1926              		@ sp needed
 1927              	.LVL127:
 1928              	.LVL128:
 221:.././crypto/mbedtls//library/bignum.c **** 
 1929              		.loc 1 221 1 view .LVU334
 1930 0028 30BD     		pop	{r4, r5, pc}
 1931              		.cfi_endproc
 1932              	.LFE9:
 1934 002a C046     		.section	.text.mbedtls_mpi_safe_cond_assign,"ax",%progbits
 1935              		.align	1
 1936              		.p2align 2,,3
 1937              		.global	mbedtls_mpi_safe_cond_assign
 1938              		.syntax unified
 1939              		.code	16
 1940              		.thumb_func
 1941              		.fpu softvfp
 1943              	mbedtls_mpi_safe_cond_assign:
 1944              	.LVL129:
 1945              	.LFB10:
 229:.././crypto/mbedtls//library/bignum.c ****     int ret = 0;
 1946              		.loc 1 229 1 is_stmt 1 view -0
 1947              		.cfi_startproc
 1948              		@ args = 0, pretend = 0, frame = 0
 1949              		@ frame_needed = 0, uses_anonymous_args = 0
 230:.././crypto/mbedtls//library/bignum.c ****     size_t i;
 1950              		.loc 1 230 5 view .LVU336
 231:.././crypto/mbedtls//library/bignum.c **** 
 1951              		.loc 1 231 5 view .LVU337
 234:.././crypto/mbedtls//library/bignum.c **** 
 1952              		.loc 1 234 5 view .LVU338
 229:.././crypto/mbedtls//library/bignum.c ****     int ret = 0;
 1953              		.loc 1 229 1 is_stmt 0 view .LVU339
 1954 0000 F8B5     		push	{r3, r4, r5, r6, r7, lr}
 1955              	.LCFI14:
 1956              		.cfi_def_cfa_offset 24
 1957              		.cfi_offset 3, -24
 1958              		.cfi_offset 4, -20
 1959              		.cfi_offset 5, -16
 1960              		.cfi_offset 6, -12
 1961              		.cfi_offset 7, -8
 1962              		.cfi_offset 14, -4
 1963 0002 CE46     		mov	lr, r9
 1964 0004 4746     		mov	r7, r8
 1965 0006 0C00     		movs	r4, r1
 1966 0008 80B5     		push	{r7, lr}
 1967              	.LCFI15:
 1968              		.cfi_def_cfa_offset 32
 1969              		.cfi_offset 8, -32
 1970              		.cfi_offset 9, -28
 236:.././crypto/mbedtls//library/bignum.c **** 
 1971              		.loc 1 236 5 view .LVU340
 1972 000a 4968     		ldr	r1, [r1, #4]
 1973              	.LVL130:
 229:.././crypto/mbedtls//library/bignum.c ****     int ret = 0;
 1974              		.loc 1 229 1 view .LVU341
 1975 000c 0700     		movs	r7, r0
 1976 000e 1500     		movs	r5, r2
 1977              	.LVL131:
 236:.././crypto/mbedtls//library/bignum.c **** 
 1978              		.loc 1 236 5 is_stmt 1 view .LVU342
 236:.././crypto/mbedtls//library/bignum.c **** 
 1979              		.loc 1 236 5 view .LVU343
 1980 0010 FFF7FEFF 		bl	mbedtls_mpi_grow
 1981              	.LVL132:
 236:.././crypto/mbedtls//library/bignum.c **** 
 1982              		.loc 1 236 5 is_stmt 0 view .LVU344
 1983 0014 8446     		mov	ip, r0
 1984              	.LVL133:
 236:.././crypto/mbedtls//library/bignum.c **** 
 1985              		.loc 1 236 5 view .LVU345
 1986 0016 0028     		cmp	r0, #0
 1987 0018 2BD1     		bne	.L120
 238:.././crypto/mbedtls//library/bignum.c **** 
 1988              		.loc 1 238 23 discriminator 2 view .LVU346
 1989 001a 0126     		movs	r6, #1
 234:.././crypto/mbedtls//library/bignum.c **** 
 1990              		.loc 1 234 24 discriminator 2 view .LVU347
 1991 001c 6A42     		rsbs	r2, r5, #0
 234:.././crypto/mbedtls//library/bignum.c **** 
 1992              		.loc 1 234 12 discriminator 2 view .LVU348
 1993 001e 1543     		orrs	r5, r2
 1994              	.LVL134:
 234:.././crypto/mbedtls//library/bignum.c **** 
 1995              		.loc 1 234 12 discriminator 2 view .LVU349
 1996 0020 EDB2     		uxtb	r5, r5
 238:.././crypto/mbedtls//library/bignum.c **** 
 1997              		.loc 1 238 17 discriminator 2 view .LVU350
 1998 0022 3B68     		ldr	r3, [r7]
 238:.././crypto/mbedtls//library/bignum.c **** 
 1999              		.loc 1 238 41 discriminator 2 view .LVU351
 2000 0024 2268     		ldr	r2, [r4]
 234:.././crypto/mbedtls//library/bignum.c **** 
 2001              		.loc 1 234 12 discriminator 2 view .LVU352
 2002 0026 ED09     		lsrs	r5, r5, #7
 236:.././crypto/mbedtls//library/bignum.c **** 
 2003              		.loc 1 236 5 is_stmt 1 discriminator 2 view .LVU353
 238:.././crypto/mbedtls//library/bignum.c **** 
 2004              		.loc 1 238 5 discriminator 2 view .LVU354
 238:.././crypto/mbedtls//library/bignum.c **** 
 2005              		.loc 1 238 23 is_stmt 0 discriminator 2 view .LVU355
 2006 0028 761B     		subs	r6, r6, r5
 238:.././crypto/mbedtls//library/bignum.c **** 
 2007              		.loc 1 238 17 discriminator 2 view .LVU356
 2008 002a 7343     		muls	r3, r6
 238:.././crypto/mbedtls//library/bignum.c **** 
 2009              		.loc 1 238 41 discriminator 2 view .LVU357
 2010 002c 6A43     		muls	r2, r5
 238:.././crypto/mbedtls//library/bignum.c **** 
 2011              		.loc 1 238 34 discriminator 2 view .LVU358
 2012 002e 9B18     		adds	r3, r3, r2
 238:.././crypto/mbedtls//library/bignum.c **** 
 2013              		.loc 1 238 10 discriminator 2 view .LVU359
 2014 0030 3B60     		str	r3, [r7]
 240:.././crypto/mbedtls//library/bignum.c ****         X->p[i] = X->p[i] * ( 1 - assign ) + Y->p[i] * assign;
 2015              		.loc 1 240 5 is_stmt 1 discriminator 2 view .LVU360
 2016              	.LVL135:
 240:.././crypto/mbedtls//library/bignum.c ****         X->p[i] = X->p[i] * ( 1 - assign ) + Y->p[i] * assign;
 2017              		.loc 1 240 17 discriminator 2 view .LVU361
 240:.././crypto/mbedtls//library/bignum.c ****         X->p[i] = X->p[i] * ( 1 - assign ) + Y->p[i] * assign;
 2018              		.loc 1 240 22 is_stmt 0 discriminator 2 view .LVU362
 2019 0032 6368     		ldr	r3, [r4, #4]
 2020 0034 9946     		mov	r9, r3
 240:.././crypto/mbedtls//library/bignum.c ****         X->p[i] = X->p[i] * ( 1 - assign ) + Y->p[i] * assign;
 2021              		.loc 1 240 5 discriminator 2 view .LVU363
 2022 0036 002B     		cmp	r3, #0
 2023 0038 0DD0     		beq	.L122
 2024 003a 9B00     		lsls	r3, r3, #2
 2025 003c 9846     		mov	r8, r3
 241:.././crypto/mbedtls//library/bignum.c **** 
 2026              		.loc 1 241 47 view .LVU364
 2027 003e 0023     		movs	r3, #0
 241:.././crypto/mbedtls//library/bignum.c **** 
 2028              		.loc 1 241 20 view .LVU365
 2029 0040 B868     		ldr	r0, [r7, #8]
 2030              	.LVL136:
 241:.././crypto/mbedtls//library/bignum.c **** 
 2031              		.loc 1 241 47 view .LVU366
 2032 0042 A468     		ldr	r4, [r4, #8]
 2033              	.LVL137:
 2034              	.L123:
 241:.././crypto/mbedtls//library/bignum.c **** 
 2035              		.loc 1 241 9 is_stmt 1 discriminator 3 view .LVU367
 241:.././crypto/mbedtls//library/bignum.c **** 
 2036              		.loc 1 241 27 is_stmt 0 discriminator 3 view .LVU368
 2037 0044 C258     		ldr	r2, [r0, r3]
 241:.././crypto/mbedtls//library/bignum.c **** 
 2038              		.loc 1 241 54 discriminator 3 view .LVU369
 2039 0046 E158     		ldr	r1, [r4, r3]
 241:.././crypto/mbedtls//library/bignum.c **** 
 2040              		.loc 1 241 27 discriminator 3 view .LVU370
 2041 0048 7243     		muls	r2, r6
 241:.././crypto/mbedtls//library/bignum.c **** 
 2042              		.loc 1 241 54 discriminator 3 view .LVU371
 2043 004a 6943     		muls	r1, r5
 241:.././crypto/mbedtls//library/bignum.c **** 
 2044              		.loc 1 241 44 discriminator 3 view .LVU372
 2045 004c 5218     		adds	r2, r2, r1
 241:.././crypto/mbedtls//library/bignum.c **** 
 2046              		.loc 1 241 17 discriminator 3 view .LVU373
 2047 004e C250     		str	r2, [r0, r3]
 240:.././crypto/mbedtls//library/bignum.c ****         X->p[i] = X->p[i] * ( 1 - assign ) + Y->p[i] * assign;
 2048              		.loc 1 240 27 is_stmt 1 discriminator 3 view .LVU374
 240:.././crypto/mbedtls//library/bignum.c ****         X->p[i] = X->p[i] * ( 1 - assign ) + Y->p[i] * assign;
 2049              		.loc 1 240 17 discriminator 3 view .LVU375
 2050 0050 0433     		adds	r3, r3, #4
 240:.././crypto/mbedtls//library/bignum.c ****         X->p[i] = X->p[i] * ( 1 - assign ) + Y->p[i] * assign;
 2051              		.loc 1 240 5 is_stmt 0 discriminator 3 view .LVU376
 2052 0052 9845     		cmp	r8, r3
 2053 0054 F6D1     		bne	.L123
 2054              	.L122:
 2055              	.LVL138:
 243:.././crypto/mbedtls//library/bignum.c ****         X->p[i] *= ( 1 - assign );
 2056              		.loc 1 243 12 is_stmt 1 view .LVU377
 243:.././crypto/mbedtls//library/bignum.c ****         X->p[i] *= ( 1 - assign );
 2057              		.loc 1 243 17 is_stmt 0 view .LVU378
 2058 0056 7A68     		ldr	r2, [r7, #4]
 243:.././crypto/mbedtls//library/bignum.c ****         X->p[i] *= ( 1 - assign );
 2059              		.loc 1 243 5 view .LVU379
 2060 0058 4A45     		cmp	r2, r9
 2061 005a 0AD9     		bls	.L120
 2062 005c 4B46     		mov	r3, r9
 244:.././crypto/mbedtls//library/bignum.c **** 
 2063              		.loc 1 244 10 view .LVU380
 2064 005e B968     		ldr	r1, [r7, #8]
 2065 0060 9B00     		lsls	r3, r3, #2
 2066 0062 9200     		lsls	r2, r2, #2
 2067 0064 CB18     		adds	r3, r1, r3
 2068 0066 8918     		adds	r1, r1, r2
 2069              	.LVL139:
 2070              	.L125:
 244:.././crypto/mbedtls//library/bignum.c **** 
 2071              		.loc 1 244 9 is_stmt 1 discriminator 2 view .LVU381
 244:.././crypto/mbedtls//library/bignum.c **** 
 2072              		.loc 1 244 17 is_stmt 0 discriminator 2 view .LVU382
 2073 0068 1A68     		ldr	r2, [r3]
 2074 006a 7243     		muls	r2, r6
 2075 006c 04C3     		stmia	r3!, {r2}
 243:.././crypto/mbedtls//library/bignum.c ****         X->p[i] *= ( 1 - assign );
 2076              		.loc 1 243 22 is_stmt 1 discriminator 2 view .LVU383
 243:.././crypto/mbedtls//library/bignum.c ****         X->p[i] *= ( 1 - assign );
 2077              		.loc 1 243 12 discriminator 2 view .LVU384
 243:.././crypto/mbedtls//library/bignum.c ****         X->p[i] *= ( 1 - assign );
 2078              		.loc 1 243 5 is_stmt 0 discriminator 2 view .LVU385
 2079 006e 9942     		cmp	r1, r3
 2080 0070 FAD1     		bne	.L125
 2081              	.L120:
 248:.././crypto/mbedtls//library/bignum.c **** 
 2082              		.loc 1 248 1 view .LVU386
 2083 0072 6046     		mov	r0, ip
 2084              		@ sp needed
 2085              	.LVL140:
 248:.././crypto/mbedtls//library/bignum.c **** 
 2086              		.loc 1 248 1 view .LVU387
 2087 0074 0CBC     		pop	{r2, r3}
 2088 0076 9046     		mov	r8, r2
 2089 0078 9946     		mov	r9, r3
 2090 007a F8BD     		pop	{r3, r4, r5, r6, r7, pc}
 2091              		.cfi_endproc
 2092              	.LFE10:
 2094              		.section	.text.mbedtls_mpi_safe_cond_swap,"ax",%progbits
 2095              		.align	1
 2096              		.p2align 2,,3
 2097              		.global	mbedtls_mpi_safe_cond_swap
 2098              		.syntax unified
 2099              		.code	16
 2100              		.thumb_func
 2101              		.fpu softvfp
 2103              	mbedtls_mpi_safe_cond_swap:
 2104              	.LVL141:
 2105              	.LFB11:
 257:.././crypto/mbedtls//library/bignum.c ****     int ret, s;
 2106              		.loc 1 257 1 is_stmt 1 view -0
 2107              		.cfi_startproc
 2108              		@ args = 0, pretend = 0, frame = 0
 2109              		@ frame_needed = 0, uses_anonymous_args = 0
 258:.././crypto/mbedtls//library/bignum.c ****     size_t i;
 2110              		.loc 1 258 5 view .LVU389
 259:.././crypto/mbedtls//library/bignum.c ****     mbedtls_mpi_uint tmp;
 2111              		.loc 1 259 5 view .LVU390
 260:.././crypto/mbedtls//library/bignum.c **** 
 2112              		.loc 1 260 5 view .LVU391
 262:.././crypto/mbedtls//library/bignum.c ****         return( 0 );
 2113              		.loc 1 262 5 view .LVU392
 257:.././crypto/mbedtls//library/bignum.c ****     int ret, s;
 2114              		.loc 1 257 1 is_stmt 0 view .LVU393
 2115 0000 F8B5     		push	{r3, r4, r5, r6, r7, lr}
 2116              	.LCFI16:
 2117              		.cfi_def_cfa_offset 24
 2118              		.cfi_offset 3, -24
 2119              		.cfi_offset 4, -20
 2120              		.cfi_offset 5, -16
 2121              		.cfi_offset 6, -12
 2122              		.cfi_offset 7, -8
 2123              		.cfi_offset 14, -4
 257:.././crypto/mbedtls//library/bignum.c ****     int ret, s;
 2124              		.loc 1 257 1 view .LVU394
 2125 0002 0700     		movs	r7, r0
 2126 0004 0D00     		movs	r5, r1
 2127 0006 1400     		movs	r4, r2
 262:.././crypto/mbedtls//library/bignum.c ****         return( 0 );
 2128              		.loc 1 262 7 view .LVU395
 2129 0008 8842     		cmp	r0, r1
 2130 000a 20D0     		beq	.L134
 266:.././crypto/mbedtls//library/bignum.c **** 
 2131              		.loc 1 266 5 is_stmt 1 view .LVU396
 2132              	.LVL142:
 268:.././crypto/mbedtls//library/bignum.c ****     MBEDTLS_MPI_CHK( mbedtls_mpi_grow( Y, X->n ) );
 2133              		.loc 1 268 5 view .LVU397
 268:.././crypto/mbedtls//library/bignum.c ****     MBEDTLS_MPI_CHK( mbedtls_mpi_grow( Y, X->n ) );
 2134              		.loc 1 268 5 view .LVU398
 2135 000c 4968     		ldr	r1, [r1, #4]
 2136              	.LVL143:
 268:.././crypto/mbedtls//library/bignum.c ****     MBEDTLS_MPI_CHK( mbedtls_mpi_grow( Y, X->n ) );
 2137              		.loc 1 268 5 is_stmt 0 view .LVU399
 2138 000e FFF7FEFF 		bl	mbedtls_mpi_grow
 2139              	.LVL144:
 268:.././crypto/mbedtls//library/bignum.c ****     MBEDTLS_MPI_CHK( mbedtls_mpi_grow( Y, X->n ) );
 2140              		.loc 1 268 5 view .LVU400
 2141 0012 0028     		cmp	r0, #0
 2142 0014 00D0     		beq	.L140
 2143              	.LVL145:
 2144              	.L131:
 285:.././crypto/mbedtls//library/bignum.c **** 
 2145              		.loc 1 285 1 view .LVU401
 2146              		@ sp needed
 2147 0016 F8BD     		pop	{r3, r4, r5, r6, r7, pc}
 2148              	.LVL146:
 2149              	.L140:
 268:.././crypto/mbedtls//library/bignum.c ****     MBEDTLS_MPI_CHK( mbedtls_mpi_grow( Y, X->n ) );
 2150              		.loc 1 268 5 is_stmt 1 discriminator 2 view .LVU402
 269:.././crypto/mbedtls//library/bignum.c **** 
 2151              		.loc 1 269 5 discriminator 2 view .LVU403
 269:.././crypto/mbedtls//library/bignum.c **** 
 2152              		.loc 1 269 5 discriminator 2 view .LVU404
 2153 0018 2800     		movs	r0, r5
 2154              	.LVL147:
 269:.././crypto/mbedtls//library/bignum.c **** 
 2155              		.loc 1 269 5 is_stmt 0 discriminator 2 view .LVU405
 2156 001a 7968     		ldr	r1, [r7, #4]
 2157 001c FFF7FEFF 		bl	mbedtls_mpi_grow
 2158              	.LVL148:
 269:.././crypto/mbedtls//library/bignum.c **** 
 2159              		.loc 1 269 5 discriminator 2 view .LVU406
 2160 0020 0028     		cmp	r0, #0
 2161 0022 F8D1     		bne	.L131
 271:.././crypto/mbedtls//library/bignum.c ****     X->s = X->s * ( 1 - swap ) + Y->s * swap;
 2162              		.loc 1 271 7 discriminator 2 view .LVU407
 2163 0024 3968     		ldr	r1, [r7]
 272:.././crypto/mbedtls//library/bignum.c ****     Y->s = Y->s * ( 1 - swap ) +    s * swap;
 2164              		.loc 1 272 23 discriminator 2 view .LVU408
 2165 0026 0126     		movs	r6, #1
 272:.././crypto/mbedtls//library/bignum.c ****     Y->s = Y->s * ( 1 - swap ) +    s * swap;
 2166              		.loc 1 272 17 discriminator 2 view .LVU409
 2167 0028 0B00     		movs	r3, r1
 266:.././crypto/mbedtls//library/bignum.c **** 
 2168              		.loc 1 266 20 discriminator 2 view .LVU410
 2169 002a 6242     		rsbs	r2, r4, #0
 266:.././crypto/mbedtls//library/bignum.c **** 
 2170              		.loc 1 266 10 discriminator 2 view .LVU411
 2171 002c 1443     		orrs	r4, r2
 2172              	.LVL149:
 266:.././crypto/mbedtls//library/bignum.c **** 
 2173              		.loc 1 266 10 discriminator 2 view .LVU412
 2174 002e E4B2     		uxtb	r4, r4
 272:.././crypto/mbedtls//library/bignum.c ****     Y->s = Y->s * ( 1 - swap ) +    s * swap;
 2175              		.loc 1 272 39 discriminator 2 view .LVU413
 2176 0030 2A68     		ldr	r2, [r5]
 266:.././crypto/mbedtls//library/bignum.c **** 
 2177              		.loc 1 266 10 discriminator 2 view .LVU414
 2178 0032 E409     		lsrs	r4, r4, #7
 269:.././crypto/mbedtls//library/bignum.c **** 
 2179              		.loc 1 269 5 is_stmt 1 discriminator 2 view .LVU415
 271:.././crypto/mbedtls//library/bignum.c ****     X->s = X->s * ( 1 - swap ) + Y->s * swap;
 2180              		.loc 1 271 5 discriminator 2 view .LVU416
 2181              	.LVL150:
 272:.././crypto/mbedtls//library/bignum.c ****     Y->s = Y->s * ( 1 - swap ) +    s * swap;
 2182              		.loc 1 272 5 discriminator 2 view .LVU417
 272:.././crypto/mbedtls//library/bignum.c ****     Y->s = Y->s * ( 1 - swap ) +    s * swap;
 2183              		.loc 1 272 23 is_stmt 0 discriminator 2 view .LVU418
 2184 0034 361B     		subs	r6, r6, r4
 272:.././crypto/mbedtls//library/bignum.c ****     Y->s = Y->s * ( 1 - swap ) +    s * swap;
 2185              		.loc 1 272 17 discriminator 2 view .LVU419
 2186 0036 7343     		muls	r3, r6
 272:.././crypto/mbedtls//library/bignum.c ****     Y->s = Y->s * ( 1 - swap ) +    s * swap;
 2187              		.loc 1 272 39 discriminator 2 view .LVU420
 2188 0038 6243     		muls	r2, r4
 272:.././crypto/mbedtls//library/bignum.c ****     Y->s = Y->s * ( 1 - swap ) +    s * swap;
 2189              		.loc 1 272 32 discriminator 2 view .LVU421
 2190 003a D218     		adds	r2, r2, r3
 272:.././crypto/mbedtls//library/bignum.c ****     Y->s = Y->s * ( 1 - swap ) +    s * swap;
 2191              		.loc 1 272 10 discriminator 2 view .LVU422
 2192 003c 3A60     		str	r2, [r7]
 273:.././crypto/mbedtls//library/bignum.c **** 
 2193              		.loc 1 273 5 is_stmt 1 discriminator 2 view .LVU423
 273:.././crypto/mbedtls//library/bignum.c **** 
 2194              		.loc 1 273 17 is_stmt 0 discriminator 2 view .LVU424
 2195 003e 2B68     		ldr	r3, [r5]
 273:.././crypto/mbedtls//library/bignum.c **** 
 2196              		.loc 1 273 39 discriminator 2 view .LVU425
 2197 0040 6143     		muls	r1, r4
 2198              	.LVL151:
 273:.././crypto/mbedtls//library/bignum.c **** 
 2199              		.loc 1 273 17 discriminator 2 view .LVU426
 2200 0042 7343     		muls	r3, r6
 273:.././crypto/mbedtls//library/bignum.c **** 
 2201              		.loc 1 273 32 discriminator 2 view .LVU427
 2202 0044 5B18     		adds	r3, r3, r1
 273:.././crypto/mbedtls//library/bignum.c **** 
 2203              		.loc 1 273 10 discriminator 2 view .LVU428
 2204 0046 2B60     		str	r3, [r5]
 276:.././crypto/mbedtls//library/bignum.c ****     {
 2205              		.loc 1 276 5 is_stmt 1 discriminator 2 view .LVU429
 2206              	.LVL152:
 276:.././crypto/mbedtls//library/bignum.c ****     {
 2207              		.loc 1 276 17 discriminator 2 view .LVU430
 276:.././crypto/mbedtls//library/bignum.c ****     {
 2208              		.loc 1 276 22 is_stmt 0 discriminator 2 view .LVU431
 2209 0048 7B68     		ldr	r3, [r7, #4]
 276:.././crypto/mbedtls//library/bignum.c ****     {
 2210              		.loc 1 276 5 discriminator 2 view .LVU432
 2211 004a 002B     		cmp	r3, #0
 2212 004c 01D1     		bne	.L141
 2213              	.LVL153:
 2214              	.L134:
 263:.././crypto/mbedtls//library/bignum.c **** 
 2215              		.loc 1 263 15 view .LVU433
 2216 004e 0020     		movs	r0, #0
 2217 0050 E1E7     		b	.L131
 2218              	.LVL154:
 2219              	.L141:
 263:.././crypto/mbedtls//library/bignum.c **** 
 2220              		.loc 1 263 15 view .LVU434
 2221 0052 B868     		ldr	r0, [r7, #8]
 2222              	.LVL155:
 263:.././crypto/mbedtls//library/bignum.c **** 
 2223              		.loc 1 263 15 view .LVU435
 2224 0054 AD68     		ldr	r5, [r5, #8]
 2225              	.LVL156:
 263:.././crypto/mbedtls//library/bignum.c **** 
 2226              		.loc 1 263 15 view .LVU436
 2227 0056 9F00     		lsls	r7, r3, #2
 2228              	.LVL157:
 263:.././crypto/mbedtls//library/bignum.c **** 
 2229              		.loc 1 263 15 view .LVU437
 2230 0058 3F18     		adds	r7, r7, r0
 2231              	.LVL158:
 2232              	.L135:
 278:.././crypto/mbedtls//library/bignum.c ****         X->p[i] = X->p[i] * ( 1 - swap ) + Y->p[i] * swap;
 2233              		.loc 1 278 9 is_stmt 1 discriminator 3 view .LVU438
 279:.././crypto/mbedtls//library/bignum.c ****         Y->p[i] = Y->p[i] * ( 1 - swap ) +     tmp * swap;
 2234              		.loc 1 279 27 is_stmt 0 discriminator 3 view .LVU439
 2235 005a 3300     		movs	r3, r6
 278:.././crypto/mbedtls//library/bignum.c ****         X->p[i] = X->p[i] * ( 1 - swap ) + Y->p[i] * swap;
 2236              		.loc 1 278 13 discriminator 3 view .LVU440
 2237 005c 0168     		ldr	r1, [r0]
 2238              	.LVL159:
 279:.././crypto/mbedtls//library/bignum.c ****         Y->p[i] = Y->p[i] * ( 1 - swap ) +     tmp * swap;
 2239              		.loc 1 279 9 is_stmt 1 discriminator 3 view .LVU441
 279:.././crypto/mbedtls//library/bignum.c ****         Y->p[i] = Y->p[i] * ( 1 - swap ) +     tmp * swap;
 2240              		.loc 1 279 52 is_stmt 0 discriminator 3 view .LVU442
 2241 005e 2A68     		ldr	r2, [r5]
 279:.././crypto/mbedtls//library/bignum.c ****         Y->p[i] = Y->p[i] * ( 1 - swap ) +     tmp * swap;
 2242              		.loc 1 279 27 discriminator 3 view .LVU443
 2243 0060 4B43     		muls	r3, r1
 279:.././crypto/mbedtls//library/bignum.c ****         Y->p[i] = Y->p[i] * ( 1 - swap ) +     tmp * swap;
 2244              		.loc 1 279 52 discriminator 3 view .LVU444
 2245 0062 6243     		muls	r2, r4
 279:.././crypto/mbedtls//library/bignum.c ****         Y->p[i] = Y->p[i] * ( 1 - swap ) +     tmp * swap;
 2246              		.loc 1 279 42 discriminator 3 view .LVU445
 2247 0064 D218     		adds	r2, r2, r3
 279:.././crypto/mbedtls//library/bignum.c ****         Y->p[i] = Y->p[i] * ( 1 - swap ) +     tmp * swap;
 2248              		.loc 1 279 17 discriminator 3 view .LVU446
 2249 0066 04C0     		stmia	r0!, {r2}
 280:.././crypto/mbedtls//library/bignum.c ****     }
 2250              		.loc 1 280 9 is_stmt 1 discriminator 3 view .LVU447
 280:.././crypto/mbedtls//library/bignum.c ****     }
 2251              		.loc 1 280 27 is_stmt 0 discriminator 3 view .LVU448
 2252 0068 2B68     		ldr	r3, [r5]
 280:.././crypto/mbedtls//library/bignum.c ****     }
 2253              		.loc 1 280 52 discriminator 3 view .LVU449
 2254 006a 6143     		muls	r1, r4
 2255              	.LVL160:
 280:.././crypto/mbedtls//library/bignum.c ****     }
 2256              		.loc 1 280 27 discriminator 3 view .LVU450
 2257 006c 7343     		muls	r3, r6
 280:.././crypto/mbedtls//library/bignum.c ****     }
 2258              		.loc 1 280 42 discriminator 3 view .LVU451
 2259 006e 5B18     		adds	r3, r3, r1
 280:.././crypto/mbedtls//library/bignum.c ****     }
 2260              		.loc 1 280 17 discriminator 3 view .LVU452
 2261 0070 08C5     		stmia	r5!, {r3}
 276:.././crypto/mbedtls//library/bignum.c ****     {
 2262              		.loc 1 276 27 is_stmt 1 discriminator 3 view .LVU453
 276:.././crypto/mbedtls//library/bignum.c ****     {
 2263              		.loc 1 276 17 discriminator 3 view .LVU454
 276:.././crypto/mbedtls//library/bignum.c ****     {
 2264              		.loc 1 276 5 is_stmt 0 discriminator 3 view .LVU455
 2265 0072 B842     		cmp	r0, r7
 2266 0074 F1D1     		bne	.L135
 263:.././crypto/mbedtls//library/bignum.c **** 
 2267              		.loc 1 263 15 view .LVU456
 2268 0076 0020     		movs	r0, #0
 2269 0078 CDE7     		b	.L131
 2270              		.cfi_endproc
 2271              	.LFE11:
 2273 007a C046     		.section	.text.mbedtls_mpi_lset,"ax",%progbits
 2274              		.align	1
 2275              		.p2align 2,,3
 2276              		.global	mbedtls_mpi_lset
 2277              		.syntax unified
 2278              		.code	16
 2279              		.thumb_func
 2280              		.fpu softvfp
 2282              	mbedtls_mpi_lset:
 2283              	.LVL161:
 2284              	.LFB12:
 291:.././crypto/mbedtls//library/bignum.c ****     int ret;
 2285              		.loc 1 291 1 is_stmt 1 view -0
 2286              		.cfi_startproc
 2287              		@ args = 0, pretend = 0, frame = 0
 2288              		@ frame_needed = 0, uses_anonymous_args = 0
 292:.././crypto/mbedtls//library/bignum.c **** 
 2289              		.loc 1 292 5 view .LVU458
 294:.././crypto/mbedtls//library/bignum.c ****     memset( X->p, 0, X->n * ciL );
 2290              		.loc 1 294 5 view .LVU459
 294:.././crypto/mbedtls//library/bignum.c ****     memset( X->p, 0, X->n * ciL );
 2291              		.loc 1 294 5 view .LVU460
 291:.././crypto/mbedtls//library/bignum.c ****     int ret;
 2292              		.loc 1 291 1 is_stmt 0 view .LVU461
 2293 0000 70B5     		push	{r4, r5, r6, lr}
 2294              	.LCFI17:
 2295              		.cfi_def_cfa_offset 16
 2296              		.cfi_offset 4, -16
 2297              		.cfi_offset 5, -12
 2298              		.cfi_offset 6, -8
 2299              		.cfi_offset 14, -4
 291:.././crypto/mbedtls//library/bignum.c ****     int ret;
 2300              		.loc 1 291 1 view .LVU462
 2301 0002 0C00     		movs	r4, r1
 294:.././crypto/mbedtls//library/bignum.c ****     memset( X->p, 0, X->n * ciL );
 2302              		.loc 1 294 5 view .LVU463
 2303 0004 0121     		movs	r1, #1
 2304              	.LVL162:
 291:.././crypto/mbedtls//library/bignum.c ****     int ret;
 2305              		.loc 1 291 1 view .LVU464
 2306 0006 0500     		movs	r5, r0
 294:.././crypto/mbedtls//library/bignum.c ****     memset( X->p, 0, X->n * ciL );
 2307              		.loc 1 294 5 view .LVU465
 2308 0008 FFF7FEFF 		bl	mbedtls_mpi_grow
 2309              	.LVL163:
 294:.././crypto/mbedtls//library/bignum.c ****     memset( X->p, 0, X->n * ciL );
 2310              		.loc 1 294 5 view .LVU466
 2311 000c 061E     		subs	r6, r0, #0
 2312              	.LVL164:
 294:.././crypto/mbedtls//library/bignum.c ****     memset( X->p, 0, X->n * ciL );
 2313              		.loc 1 294 5 view .LVU467
 2314 000e 0FD1     		bne	.L142
 2315              	.LVL165:
 2316              	.LBB181:
 2317              	.LBI181:
 290:.././crypto/mbedtls//library/bignum.c **** {
 2318              		.loc 1 290 5 is_stmt 1 view .LVU468
 2319              	.LBB182:
 294:.././crypto/mbedtls//library/bignum.c ****     memset( X->p, 0, X->n * ciL );
 2320              		.loc 1 294 5 view .LVU469
 295:.././crypto/mbedtls//library/bignum.c **** 
 2321              		.loc 1 295 5 view .LVU470
 2322 0010 6B68     		ldr	r3, [r5, #4]
 2323 0012 0021     		movs	r1, #0
 2324 0014 9A00     		lsls	r2, r3, #2
 2325 0016 A868     		ldr	r0, [r5, #8]
 2326              	.LVL166:
 295:.././crypto/mbedtls//library/bignum.c **** 
 2327              		.loc 1 295 5 is_stmt 0 view .LVU471
 2328 0018 FFF7FEFF 		bl	memset
 2329              	.LVL167:
 297:.././crypto/mbedtls//library/bignum.c ****     X->s    = ( z < 0 ) ? -1 : 1;
 2330              		.loc 1 297 5 is_stmt 1 view .LVU472
 297:.././crypto/mbedtls//library/bignum.c ****     X->s    = ( z < 0 ) ? -1 : 1;
 2331              		.loc 1 297 30 is_stmt 0 view .LVU473
 2332 001c E117     		asrs	r1, r4, #31
 297:.././crypto/mbedtls//library/bignum.c ****     X->s    = ( z < 0 ) ? -1 : 1;
 2333              		.loc 1 297 13 view .LVU474
 2334 001e AB68     		ldr	r3, [r5, #8]
 297:.././crypto/mbedtls//library/bignum.c ****     X->s    = ( z < 0 ) ? -1 : 1;
 2335              		.loc 1 297 30 view .LVU475
 2336 0020 6218     		adds	r2, r4, r1
 2337 0022 4A40     		eors	r2, r1
 297:.././crypto/mbedtls//library/bignum.c ****     X->s    = ( z < 0 ) ? -1 : 1;
 2338              		.loc 1 297 13 view .LVU476
 2339 0024 1A60     		str	r2, [r3]
 298:.././crypto/mbedtls//library/bignum.c **** 
 2340              		.loc 1 298 5 is_stmt 1 view .LVU477
 298:.././crypto/mbedtls//library/bignum.c **** 
 2341              		.loc 1 298 30 is_stmt 0 view .LVU478
 2342 0026 0123     		movs	r3, #1
 2343 0028 E117     		asrs	r1, r4, #31
 2344 002a 9943     		bics	r1, r3
 2345 002c 0131     		adds	r1, r1, #1
 298:.././crypto/mbedtls//library/bignum.c **** 
 2346              		.loc 1 298 13 view .LVU479
 2347 002e 2960     		str	r1, [r5]
 2348              	.LVL168:
 298:.././crypto/mbedtls//library/bignum.c **** 
 2349              		.loc 1 298 13 view .LVU480
 2350              	.LBE182:
 2351              	.LBE181:
 302:.././crypto/mbedtls//library/bignum.c **** }
 2352              		.loc 1 302 5 is_stmt 1 view .LVU481
 2353              	.L143:
 2354              	.L142:
 303:.././crypto/mbedtls//library/bignum.c **** 
 2355              		.loc 1 303 1 is_stmt 0 view .LVU482
 2356 0030 3000     		movs	r0, r6
 2357              		@ sp needed
 2358              	.LVL169:
 2359              	.LVL170:
 2360              	.LVL171:
 303:.././crypto/mbedtls//library/bignum.c **** 
 2361              		.loc 1 303 1 view .LVU483
 2362 0032 70BD     		pop	{r4, r5, r6, pc}
 2363              		.cfi_endproc
 2364              	.LFE12:
 2366              		.section	.text.mbedtls_mpi_get_bit,"ax",%progbits
 2367              		.align	1
 2368              		.p2align 2,,3
 2369              		.global	mbedtls_mpi_get_bit
 2370              		.syntax unified
 2371              		.code	16
 2372              		.thumb_func
 2373              		.fpu softvfp
 2375              	mbedtls_mpi_get_bit:
 2376              	.LVL172:
 2377              	.LFB13:
 309:.././crypto/mbedtls//library/bignum.c ****     if( X->n * biL <= pos )
 2378              		.loc 1 309 1 is_stmt 1 view -0
 2379              		.cfi_startproc
 2380              		@ args = 0, pretend = 0, frame = 0
 2381              		@ frame_needed = 0, uses_anonymous_args = 0
 2382              		@ link register save eliminated.
 310:.././crypto/mbedtls//library/bignum.c ****         return( 0 );
 2383              		.loc 1 310 5 view .LVU485
 310:.././crypto/mbedtls//library/bignum.c ****         return( 0 );
 2384              		.loc 1 310 14 is_stmt 0 view .LVU486
 2385 0000 4368     		ldr	r3, [r0, #4]
 2386 0002 5B01     		lsls	r3, r3, #5
 310:.././crypto/mbedtls//library/bignum.c ****         return( 0 );
 2387              		.loc 1 310 7 view .LVU487
 2388 0004 8B42     		cmp	r3, r1
 2389 0006 09D9     		bls	.L148
 313:.././crypto/mbedtls//library/bignum.c **** }
 2390              		.loc 1 313 5 is_stmt 1 view .LVU488
 313:.././crypto/mbedtls//library/bignum.c **** }
 2391              		.loc 1 313 40 is_stmt 0 view .LVU489
 2392 0008 1F23     		movs	r3, #31
 313:.././crypto/mbedtls//library/bignum.c **** }
 2393              		.loc 1 313 19 view .LVU490
 2394 000a 8068     		ldr	r0, [r0, #8]
 2395              	.LVL173:
 313:.././crypto/mbedtls//library/bignum.c **** }
 2396              		.loc 1 313 24 view .LVU491
 2397 000c 4A09     		lsrs	r2, r1, #5
 313:.././crypto/mbedtls//library/bignum.c **** }
 2398              		.loc 1 313 19 view .LVU492
 2399 000e 9200     		lsls	r2, r2, #2
 313:.././crypto/mbedtls//library/bignum.c **** }
 2400              		.loc 1 313 40 view .LVU493
 2401 0010 1940     		ands	r1, r3
 2402              	.LVL174:
 313:.././crypto/mbedtls//library/bignum.c **** }
 2403              		.loc 1 313 31 view .LVU494
 2404 0012 1358     		ldr	r3, [r2, r0]
 313:.././crypto/mbedtls//library/bignum.c **** }
 2405              		.loc 1 313 50 view .LVU495
 2406 0014 0120     		movs	r0, #1
 313:.././crypto/mbedtls//library/bignum.c **** }
 2407              		.loc 1 313 31 view .LVU496
 2408 0016 CB40     		lsrs	r3, r3, r1
 313:.././crypto/mbedtls//library/bignum.c **** }
 2409              		.loc 1 313 50 view .LVU497
 2410 0018 1840     		ands	r0, r3
 2411              	.L146:
 314:.././crypto/mbedtls//library/bignum.c **** 
 2412              		.loc 1 314 1 view .LVU498
 2413              		@ sp needed
 2414 001a 7047     		bx	lr
 2415              	.LVL175:
 2416              	.L148:
 311:.././crypto/mbedtls//library/bignum.c **** 
 2417              		.loc 1 311 15 view .LVU499
 2418 001c 0020     		movs	r0, #0
 2419              	.LVL176:
 311:.././crypto/mbedtls//library/bignum.c **** 
 2420              		.loc 1 311 15 view .LVU500
 2421 001e FCE7     		b	.L146
 2422              		.cfi_endproc
 2423              	.LFE13:
 2425              		.section	.text.mbedtls_mpi_set_bit,"ax",%progbits
 2426              		.align	1
 2427              		.p2align 2,,3
 2428              		.global	mbedtls_mpi_set_bit
 2429              		.syntax unified
 2430              		.code	16
 2431              		.thumb_func
 2432              		.fpu softvfp
 2434              	mbedtls_mpi_set_bit:
 2435              	.LVL177:
 2436              	.LFB14:
 320:.././crypto/mbedtls//library/bignum.c ****     int ret = 0;
 2437              		.loc 1 320 1 is_stmt 1 view -0
 2438              		.cfi_startproc
 2439              		@ args = 0, pretend = 0, frame = 0
 2440              		@ frame_needed = 0, uses_anonymous_args = 0
 321:.././crypto/mbedtls//library/bignum.c ****     size_t off = pos / biL;
 2441              		.loc 1 321 5 view .LVU502
 322:.././crypto/mbedtls//library/bignum.c ****     size_t idx = pos % biL;
 2442              		.loc 1 322 5 view .LVU503
 320:.././crypto/mbedtls//library/bignum.c ****     int ret = 0;
 2443              		.loc 1 320 1 is_stmt 0 view .LVU504
 2444 0000 F8B5     		push	{r3, r4, r5, r6, r7, lr}
 2445              	.LCFI18:
 2446              		.cfi_def_cfa_offset 24
 2447              		.cfi_offset 3, -24
 2448              		.cfi_offset 4, -20
 2449              		.cfi_offset 5, -16
 2450              		.cfi_offset 6, -12
 2451              		.cfi_offset 7, -8
 2452              		.cfi_offset 14, -4
 320:.././crypto/mbedtls//library/bignum.c ****     int ret = 0;
 2453              		.loc 1 320 1 view .LVU505
 2454 0002 0600     		movs	r6, r0
 2455 0004 0D00     		movs	r5, r1
 2456 0006 1400     		movs	r4, r2
 322:.././crypto/mbedtls//library/bignum.c ****     size_t idx = pos % biL;
 2457              		.loc 1 322 12 view .LVU506
 2458 0008 4F09     		lsrs	r7, r1, #5
 2459              	.LVL178:
 323:.././crypto/mbedtls//library/bignum.c **** 
 2460              		.loc 1 323 5 is_stmt 1 view .LVU507
 325:.././crypto/mbedtls//library/bignum.c ****         return( MBEDTLS_ERR_MPI_BAD_INPUT_DATA );
 2461              		.loc 1 325 5 view .LVU508
 325:.././crypto/mbedtls//library/bignum.c ****         return( MBEDTLS_ERR_MPI_BAD_INPUT_DATA );
 2462              		.loc 1 325 7 is_stmt 0 view .LVU509
 2463 000a 012A     		cmp	r2, #1
 2464 000c 1AD8     		bhi	.L153
 328:.././crypto/mbedtls//library/bignum.c ****     {
 2465              		.loc 1 328 5 is_stmt 1 view .LVU510
 328:.././crypto/mbedtls//library/bignum.c ****     {
 2466              		.loc 1 328 14 is_stmt 0 view .LVU511
 2467 000e 4368     		ldr	r3, [r0, #4]
 2468 0010 5B01     		lsls	r3, r3, #5
 328:.././crypto/mbedtls//library/bignum.c ****     {
 2469              		.loc 1 328 7 view .LVU512
 2470 0012 8B42     		cmp	r3, r1
 2471 0014 08D8     		bhi	.L152
 330:.././crypto/mbedtls//library/bignum.c ****             return( 0 );
 2472              		.loc 1 330 9 is_stmt 1 view .LVU513
 331:.././crypto/mbedtls//library/bignum.c **** 
 2473              		.loc 1 331 19 is_stmt 0 view .LVU514
 2474 0016 0020     		movs	r0, #0
 2475              	.LVL179:
 330:.././crypto/mbedtls//library/bignum.c ****             return( 0 );
 2476              		.loc 1 330 11 view .LVU515
 2477 0018 002A     		cmp	r2, #0
 2478 001a 12D0     		beq	.L149
 333:.././crypto/mbedtls//library/bignum.c ****     }
 2479              		.loc 1 333 9 is_stmt 1 view .LVU516
 333:.././crypto/mbedtls//library/bignum.c ****     }
 2480              		.loc 1 333 9 view .LVU517
 2481 001c 3000     		movs	r0, r6
 2482 001e 791C     		adds	r1, r7, #1
 2483              	.LVL180:
 333:.././crypto/mbedtls//library/bignum.c ****     }
 2484              		.loc 1 333 9 is_stmt 0 view .LVU518
 2485 0020 FFF7FEFF 		bl	mbedtls_mpi_grow
 2486              	.LVL181:
 333:.././crypto/mbedtls//library/bignum.c ****     }
 2487              		.loc 1 333 9 view .LVU519
 2488 0024 0028     		cmp	r0, #0
 2489 0026 0CD1     		bne	.L149
 2490              	.LVL182:
 2491              	.L152:
 323:.././crypto/mbedtls//library/bignum.c **** 
 2492              		.loc 1 323 12 view .LVU520
 2493 0028 1F21     		movs	r1, #31
 336:.././crypto/mbedtls//library/bignum.c ****     X->p[off] |= (mbedtls_mpi_uint) val << idx;
 2494              		.loc 1 336 45 view .LVU521
 2495 002a 0123     		movs	r3, #1
 323:.././crypto/mbedtls//library/bignum.c **** 
 2496              		.loc 1 323 12 view .LVU522
 2497 002c 0D40     		ands	r5, r1
 2498              	.LVL183:
 333:.././crypto/mbedtls//library/bignum.c ****     }
 2499              		.loc 1 333 9 is_stmt 1 view .LVU523
 336:.././crypto/mbedtls//library/bignum.c ****     X->p[off] |= (mbedtls_mpi_uint) val << idx;
 2500              		.loc 1 336 5 view .LVU524
 336:.././crypto/mbedtls//library/bignum.c ****     X->p[off] |= (mbedtls_mpi_uint) val << idx;
 2501              		.loc 1 336 45 is_stmt 0 view .LVU525
 2502 002e AB40     		lsls	r3, r3, r5
 337:.././crypto/mbedtls//library/bignum.c **** 
 2503              		.loc 1 337 41 view .LVU526
 2504 0030 AC40     		lsls	r4, r4, r5
 336:.././crypto/mbedtls//library/bignum.c ****     X->p[off] |= (mbedtls_mpi_uint) val << idx;
 2505              		.loc 1 336 15 view .LVU527
